

HI-TECH Software PICC-18 Macro Assembler V8.35PL3
Serial number: HCPIC18-88888                           Thu Jan  2 10:12:16 2014

Licensed to: ONE TWO
     1                           	processor	18F6622
     2                           	opt	pw 80
     3                           	psect	__Z88888RS_,global,delta=1
     4                           	psect	text,global,reloc=2,class=CODE,delta=1
     5                           	psect	bigbss,global,class=BIGRAM,space=1,delta=
      +                          1
     6                           	psect	bss,global,class=RAM,space=1,delta=1
     7                           	psect	temp,global,ovrld,common,class=COMRAM,spa
      +                          ce=1,delta=1
     8                           	psect	intsave_regs,global,class=BIGRAM,space=1,
      +                          delta=1
     9  000000                     
    10  000000                     
    11  000000                     
    12  000000                     
    13  000000                     
    14  000000                     
    15  000000                     
    16  000000                     
    17  000000                     
    18  000000                     
    19  000000                     
    20  000000                     
    21  000000                     
    22  000000                     
    23  000000                     
    24  000000                     
    25  000000                     
    26  000000                     
    27  000000                     
    28  000000                     
    29  000000                     
    30  000000                     
    31  000000                     
    32  000000                     
    33  000000                     
    34  000000                     
    35  000000                     
    36  000000                     
    37  000000                     
    38  000000                     
    39  000000                     
    40  000000                     
    41  000000                     
    42  000000                     
    43  000000                     
    44  000000                     
    45  000000                     
    46  000000                     
    47  000000                     
    48  000000                     
    49  000000                     
    50  000000                     
    51  000000                     
    52  000000                     
    53  000000                     
    54  000000                     
    55  000000                     
    56  000000                     
    57  000000                     
    58  000000                     
    59  000000                     
    60  000000                     
    61  000000                     
    62  000000                     
    63  000000                     
    64  000000                     
    65  000000                     
    66  000000                     
    67  000000                     
    68  000000                     
    69  000000                     
    70  000000                     
    71  000000                     
    72  000000                     
    73  000000                     
    74  000000                     
    75  000000                     
    76  000000                     
    77  000000                     
    78  000000                     
    79  000000                     
    80  000000                     
    81  000000                     
    82  000000                     
    83  000000                     
    84  000000                     
    85  000000                     
    86  000000                     
    87  000000                     
    88  000000                     
    89  000000                     
    90  000000                     
    91  000000                     
    92  000000                     
    93  000000                     
    94  000000                     
    95  000000                     
    96  000000                     
    97  000000                     
    98                           
    99                           	psect	__Z88888RS_
   100  000004                     
   101  000004                     
   102                           
   103                           	psect	text
   104                           ;stdlib.h: 122: extern int atexit(void (*)(void)
      +                          );
   105                           ;stdlib.h: 126: extern void qsort(void *, size_t
      +                          , size_t, int (*)(const void *, const void *));
   106                           ;stdlib.h: 127: extern void * bsearch(const void
      +                           *, void *, size_t, size_t, int(*)(const void *,
      +                           const void *));
   107  006CD2                     _ad_buffer_init:
   108                           ;	_temp assigned to ?a_cal_channle_val+16
   109  000000                     _cal_channle_val$temp	set	?a_cal_channle_val+16
   110                           ;	_d assigned to ?a_cal_channle_val+12
   111  000000                     _cal_channle_val$d	set	?a_cal_channle_val+12
   112                           ;	_d2 assigned to ?a_cal_channle_val+8
   113  000000                     _cal_channle_val$d2	set	?a_cal_channle_val+8
   114                           ;	_d1 assigned to ?a_cal_channle_val+4
   115  000000                     _cal_channle_val$d1	set	?a_cal_channle_val+4
   116                           ;	_d3 assigned to ?a_cal_channle_val+0
   117  000000                     _cal_channle_val$d3	set	?a_cal_channle_val
   118                           ;       param _nerr assigned to ?_pd_val+8
   119  000000                     _pd_val$nerr	set	?_pd_val+8
   120                           ;       param _v3 assigned to ?_pd_val+6
   121  000000                     _pd_val$v3	set	?_pd_val+6
   122                           ;       param _v2 assigned to ?_pd_val+4
   123  000000                     _pd_val$v2	set	?_pd_val+4
   124                           ;       param _v1 assigned to ?_pd_val+2
   125  000000                     _pd_val$v1	set	?_pd_val+2
   126                           ;adc.c: 231: void pd_val(unsigned int uav,unsign
      +                          ed int v1,unsigned int v2,unsigned int v3,unsign
      +                          ed char nerr)
   127                           ;adc.c: 232: {
   128                           ;       param _uav assigned to ?_pd_val+0
   129  000000                     _pd_val$uav	set	?_pd_val
   130                           ;	_temp assigned to ?a_root+0
   131  000000                     _root$temp	set	?a_root
   132  000000                     
   133                           ;adc.c: 37: adm.ad1 = 0;
   134  006CD2  0100               	movlb	(_adm+3) shr (0+8)
   135  006CD4  6B19               	clrf	(_adm+3)& (0+255),b
   136  006CD6  6B1A               	clrf	(_adm+4)& (0+255),b
   137                           ;adc.c: 38: adm.ad2 = 0;
   138  006CD8  6B1B               	clrf	(_adm+5)& (0+255),b
   139  006CDA  6B1C               	clrf	(_adm+6)& (0+255),b
   140                           ;adc.c: 39: adm.status = 0;
   141  006CDC  6B17               	clrf	(_adm+1)& (0+255),b
   142                           ;adc.c: 40: adm.channle = 0;
   143  006CDE  6B16               	clrf	_adm& (0+255),b
   144                           ;adc.c: 41: adm.time_count = 0;
   145  006CE0  6B26               	clrf	(_adm+16)& (0+255),b
   146  006CE2  6B27               	clrf	(_adm+17)& (0+255),b
   147                           ;adc.c: 42: adm.time_flag = 0;
   148  006CE4  6B25               	clrf	(_adm+15)& (0+255),b
   149                           ;adc.c: 43: }
   150  006CE6  0012               	return	
   151  006CE8                     _adc_init:
   152  000000                     
   153                           ;adc.c: 51: PCFG0 = 1;
   154  006CE8  80C1               	bsf	4033,0,c
   155                           ;adc.c: 52: PCFG1 = 0;
   156  006CEA  92C1               	bcf	4033,1,c
   157                           ;adc.c: 53: PCFG2 = 1;
   158  006CEC  84C1               	bsf	4033,2,c
   159                           ;adc.c: 54: PCFG3 = 1;
   160  006CEE  86C1               	bsf	4033,3,c
   161                           ;adc.c: 57: VCFG1 = 0;
   162  006CF0  9AC1               	bcf	4033,5,c
   163                           ;adc.c: 58: VCFG0 = 0;
   164  006CF2  98C1               	bcf	4033,4,c
   165                           ;adc.c: 61: TRISA0 = 1;
   166  006CF4  8092               	bsf	3986,0,c	;volatile
   167                           ;adc.c: 62: TRISA1 = 1;
   168  006CF6  8292               	bsf	3986,1,c	;volatile
   169                           ;adc.c: 65: ADFM = 1;
   170  006CF8  8EC0               	bsf	4032,7,c
   171                           ;adc.c: 67: ACQT0 = 1;
   172  006CFA  86C0               	bsf	4032,3,c
   173                           ;adc.c: 68: ACQT1 = 1;
   174  006CFC  88C0               	bsf	4032,4,c
   175                           ;adc.c: 69: ACQT2 = 1;
   176  006CFE  8AC0               	bsf	4032,5,c
   177                           ;adc.c: 71: ADCS0 = 0;
   178  006D00  90C0               	bcf	4032,0,c
   179                           ;adc.c: 72: ADCS1 = 1;
   180  006D02  82C0               	bsf	4032,1,c
   181                           ;adc.c: 73: ADCS2 = 1;
   182  006D04  84C0               	bsf	4032,2,c
   183                           ;adc.c: 75: ADON = 1;
   184  006D06  80C2               	bsf	4034,0,c
   185                           ;adc.c: 77: TRISA2 = 0;
   186  006D08  9492               	bcf	3986,2,c	;volatile
   187                           ;adc.c: 78: TRISF1 = 0;
   188  006D0A  9297               	bcf	3991,1,c	;volatile
   189                           ;adc.c: 80: TRISF2 = 0;
   190  006D0C  9497               	bcf	3991,2,c	;volatile
   191                           ;adc.c: 81: TRISF3 = 0;
   192  006D0E  9697               	bcf	3991,3,c	;volatile
   193                           ;adc.c: 86: ad_buffer_init();
   194  006D10  D7E0               	goto	_ad_buffer_init	;wreg free
   195                           ;adc.c: 87: }
   196  006D12                     _capture_init:
   197  000000                     
   198                           ;adc.c: 99: T3CON = 0xc9;
   199  006D12  0EC9               	movlw	201
   200  006D14  6EB1               	movwf	4017,c
   201                           ;adc.c: 102: TRISG3 = 1;
   202  006D16  8698               	bsf	3992,3,c	;volatile
   203                           ;adc.c: 103: TRISG4 = 1;
   204  006D18  8898               	bsf	3992,4,c	;volatile
   205                           ;adc.c: 105: CCP4CON = 0x04;
   206  006D1A  0E04               	movlw	4
   207  006D1C  6E73               	movwf	3955,c	;volatile
   208                           ;adc.c: 106: CCP5CON = 0X05;
   209  006D1E  0E05               	movlw	5
   210  006D20  6E70               	movwf	3952,c	;volatile
   211                           ;adc.c: 108: CCP4IE = 1;
   212  006D22  82A3               	bsf	4003,1,c
   213                           ;adc.c: 109: CCP5IE = 1;
   214  006D24  84A3               	bsf	4003,2,c
   215                           ;adc.c: 110: CCP4IP = 1;
   216  006D26  82A5               	bsf	4005,1,c
   217                           ;adc.c: 111: CCP5IP = 1;
   218  006D28  84A5               	bsf	4005,2,c
   219                           ;adc.c: 112: }
   220  006D2A  0012               	return	
   221  006D2C                     _clear_one_ad_val:
   222  000000                     
   223                           ;adc.c: 118: switch(adm.channle)
   224  006D2C  D018               	goto	l17
   225  006D2E                     l18:
   226                           ;adc.c: 119: {
   227  006D2E  0101               	movlb	_sys shr (0+8)
   228  006D30  6B12               	clrf	_sys& (0+255),b
   229  006D32  6B13               	clrf	(_sys+1)& (0+255),b
   230  006D34  0012               	return	
   231  006D36                     l19:
   232                           ;adc.c: 121: case 1:sys.ubv = 0;break;
   233  006D36  0101               	movlb	(_sys+2) shr (0+8)
   234  006D38  6B14               	clrf	(_sys+2)& (0+255),b
   235  006D3A  6B15               	clrf	(_sys+3)& (0+255),b
   236  006D3C  0012               	return	
   237  006D3E                     l20:
   238                           ;adc.c: 122: case 2:sys.ucv = 0;break;
   239  006D3E  0101               	movlb	(_sys+4) shr (0+8)
   240  006D40  6B16               	clrf	(_sys+4)& (0+255),b
   241  006D42  6B17               	clrf	(_sys+5)& (0+255),b
   242  006D44  0012               	return	
   243  006D46                     l21:
   244                           ;adc.c: 123: case 3:sys.iav = 0;break;
   245  006D46  0101               	movlb	(_sys+6) shr (0+8)
   246  006D48  6B18               	clrf	(_sys+6)& (0+255),b
   247  006D4A  6B19               	clrf	(_sys+7)& (0+255),b
   248  006D4C  0012               	return	
   249  006D4E                     l22:
   250                           ;adc.c: 124: case 4:sys.ibv = 0;break;
   251  006D4E  0101               	movlb	(_sys+8) shr (0+8)
   252  006D50  6B1A               	clrf	(_sys+8)& (0+255),b
   253  006D52  6B1B               	clrf	(_sys+9)& (0+255),b
   254  006D54  0012               	return	
   255  006D56                     l23:
   256                           ;adc.c: 125: case 5:sys.icv = 0;break;
   257  006D56  0101               	movlb	(_sys+10) shr (0+8)
   258  006D58  6B1C               	clrf	(_sys+10)& (0+255),b
   259  006D5A  6B1D               	clrf	(_sys+11)& (0+255),b
   260                           ;adc.c: 126: default:break;
   261  006D5C  0012               	return	
   262  006D5E                     l17:
   263  006D5E  C016  FFE8         	movff	_adm,wreg
   264  006D62  0A00               	xorlw	0
   265  006D64  E0E4               	bz	l18
   266  006D66  0A01               	xorlw	1
   267  006D68  E0E6               	bz	l19
   268  006D6A  0A03               	xorlw	3
   269  006D6C  E0E8               	bz	l20
   270  006D6E  0A01               	xorlw	1
   271  006D70  E0EA               	bz	l21
   272  006D72  0A07               	xorlw	7
   273  006D74  E0EC               	bz	l22
   274  006D76  0A01               	xorlw	1
   275  006D78  E0EE               	bz	l23
   276  006D7A  0012               	return	
   277                           ;adc.c: 128: }
   278                           ;adc.c: 130: void ad_sequence_sample(void)
   279                           ;adc.c: 131: {
   280  006D7C                     _ad_sequence_sample:
   281  000000                     
   282                           ;adc.c: 133: switch(adm.status)
   283  006D7C  D094               	goto	l27
   284  006D7E                     l28:
   285                           ;adc.c: 134: {
   286                           ;adc.c: 139: if(adm.channle == 0)
   287  006D7E  0100               	movlb	_adm shr (0+8)
   288  006D80  5316               	movf	_adm& (0+255),f,b
   289  006D82  A4D8               	btfss	status,2,c
   290  006D84  D004               	goto	l29
   291                           ;adc.c: 140: {
   292  006D86  94A3               	bcf	4003,2,c
   293                           ;adc.c: 142: CCP4IE=1;
   294  006D88  82A3               	bsf	4003,1,c
   295                           ;adc.c: 143: RF2=0;RF3=0;RF1=0;RA2=1;
   296  006D8A  9485               	bcf	3973,2,c	;volatile
   297  006D8C  D008               	goto	L1
   298                           ;adc.c: 144: }
   299  006D8E                     l29:
   300  006D8E  C016  F000         	movff	_adm,btemp
   301  006D92  0400               	decf	btemp,w
   302  006D94  A4D8               	btfss	status,2,c
   303  006D96  D005               	goto	l31
   304                           ;adc.c: 146: {
   305  006D98  94A3               	bcf	4003,2,c
   306                           ;adc.c: 148: CCP4IE=1;
   307  006D9A  82A3               	bsf	4003,1,c
   308                           ;adc.c: 149: RF2=1;RF3=0;RF1=0;RA2=1;
   309  006D9C  8485               	bsf	3973,2,c	;volatile
   310  006D9E                     L1:
   311  006D9E  9685               	bcf	3973,3,c	;volatile
   312  006DA0  D009               	goto	L2
   313                           ;adc.c: 150: }
   314  006DA2                     l31:
   315  006DA2  C016  FFE8         	movff	_adm,wreg
   316  006DA6  0A02               	xorlw	2
   317  006DA8  A4D8               	btfss	status,2,c
   318  006DAA  D007               	goto	l33
   319                           ;adc.c: 152: {
   320  006DAC  94A3               	bcf	4003,2,c
   321                           ;adc.c: 154: CCP4IE=1;
   322  006DAE  82A3               	bsf	4003,1,c
   323                           ;adc.c: 155: RF2=0;RF3=1;RF1=0;RA2=1;
   324  006DB0  9485               	bcf	3973,2,c	;volatile
   325  006DB2  8685               	bsf	3973,3,c	;volatile
   326  006DB4                     L2:
   327  006DB4  9285               	bcf	3973,1,c	;volatile
   328  006DB6  8480               	bsf	3968,2,c	;volatile
   329                           ;adc.c: 156: }
   330  006DB8  D01E               	goto	l30
   331  006DBA                     l33:
   332  006DBA  C016  FFE8         	movff	_adm,wreg
   333  006DBE  0A03               	xorlw	3
   334  006DC0  A4D8               	btfss	status,2,c
   335  006DC2  D004               	goto	l35
   336                           ;adc.c: 158: {
   337  006DC4  92A3               	bcf	4003,1,c
   338                           ;adc.c: 160: CCP5IE=1;
   339  006DC6  84A3               	bsf	4003,2,c
   340                           ;adc.c: 161: RF2=0;RF3=0;RF1=1;RA2=0;
   341  006DC8  9485               	bcf	3973,2,c	;volatile
   342  006DCA  D008               	goto	L3
   343                           ;adc.c: 162: }
   344  006DCC                     l35:
   345  006DCC  C016  FFE8         	movff	_adm,wreg
   346  006DD0  0A04               	xorlw	4
   347  006DD2  A4D8               	btfss	status,2,c
   348  006DD4  D005               	goto	l37
   349                           ;adc.c: 164: {
   350  006DD6  92A3               	bcf	4003,1,c
   351                           ;adc.c: 166: CCP5IE=1;
   352  006DD8  84A3               	bsf	4003,2,c
   353                           ;adc.c: 167: RF2=1;RF3=0;RF1=1;RA2=0;
   354  006DDA  8485               	bsf	3973,2,c	;volatile
   355  006DDC                     L3:
   356  006DDC  9685               	bcf	3973,3,c	;volatile
   357  006DDE  D009               	goto	L14
   358                           ;adc.c: 168: }
   359  006DE0                     l37:
   360  006DE0  C016  FFE8         	movff	_adm,wreg
   361  006DE4  0A05               	xorlw	5
   362  006DE6  A4D8               	btfss	status,2,c
   363  006DE8  D006               	goto	l30
   364                           ;adc.c: 170: {
   365  006DEA  92A3               	bcf	4003,1,c
   366                           ;adc.c: 172: CCP5IE=1;
   367  006DEC  84A3               	bsf	4003,2,c
   368                           ;adc.c: 173: RF2=0;RF3=1;RF1=1;RA2=0;
   369  006DEE  9485               	bcf	3973,2,c	;volatile
   370  006DF0  8685               	bsf	3973,3,c	;volatile
   371  006DF2                     L14:
   372  006DF2  8285               	bsf	3973,1,c	;volatile
   373  006DF4  9480               	bcf	3968,2,c	;volatile
   374                           ;adc.c: 174: }
   375  006DF6                     l30:
   376  006DF6  0E01               	movlw	1
   377  006DF8  CFE8 F017          	movff	wreg,_adm+1
   378                           ;adc.c: 176: break;
   379  006DFC  0012               	return	
   380  006DFE                     l40:
   381                           ;adc.c: 178: case 1:
   382                           ;adc.c: 179: adm.idle_time++;
   383  006DFE  0100               	movlb	(_adm+7) shr (0+8)
   384  006E00  2B1D               	incf	(_adm+7)& (0+255),f,b
   385                           ;adc.c: 180: if(adm.idle_time == 3)
   386  006E02  C01D  FFE8         	movff	_adm+7,wreg
   387  006E06  0A03               	xorlw	3
   388  006E08  A4D8               	btfss	status,2,c
   389  006E0A  0012               	return	
   390                           ;adc.c: 181: {
   391  006E0C  6B1D               	clrf	(_adm+7)& (0+255),b
   392                           ;adc.c: 183: clear_one_ad_val();
   393  006E0E  DF8E               	call	_clear_one_ad_val	;wreg free
   394                           ;adc.c: 185: if(adm.channle ==0)ua_err = 4;
   395  006E10  0100               	movlb	_adm shr (0+8)
   396  006E12  5316               	movf	_adm& (0+255),f,b
   397  006E14  A4D8               	btfss	status,2,c
   398  006E16  D004               	goto	l42
   399  006E18  0E04               	movlw	4
   400  006E1A  CFE8 FE87          	movff	wreg,_ua_err
   401                           ;adc.c: 186: else if(adm.channle ==1)ub_err = 4;
   402  006E1E  D02C               	goto	l43
   403  006E20                     l42:
   404  006E20  C016  F000         	movff	_adm,btemp
   405  006E24  0400               	decf	btemp,w
   406  006E26  A4D8               	btfss	status,2,c
   407  006E28  D004               	goto	l44
   408  006E2A  0E04               	movlw	4
   409  006E2C  CFE8 FE88          	movff	wreg,_ub_err
   410                           ;adc.c: 187: else if(adm.channle ==2)uc_err = 4;
   411  006E30  D023               	goto	l43
   412  006E32                     l44:
   413  006E32  C016  FFE8         	movff	_adm,wreg
   414  006E36  0A02               	xorlw	2
   415  006E38  A4D8               	btfss	status,2,c
   416  006E3A  D004               	goto	l46
   417  006E3C  0E04               	movlw	4
   418  006E3E  CFE8 FE89          	movff	wreg,_uc_err
   419                           ;adc.c: 188: else if(adm.channle ==3)ia_err = 4;
   420  006E42  D01A               	goto	l43
   421  006E44                     l46:
   422  006E44  C016  FFE8         	movff	_adm,wreg
   423  006E48  0A03               	xorlw	3
   424  006E4A  A4D8               	btfss	status,2,c
   425  006E4C  D004               	goto	l48
   426  006E4E  0E04               	movlw	4
   427  006E50  CFE8 FE84          	movff	wreg,_ia_err
   428                           ;adc.c: 189: else if(adm.channle ==4)ib_err = 4;
   429  006E54  D011               	goto	l43
   430  006E56                     l48:
   431  006E56  C016  FFE8         	movff	_adm,wreg
   432  006E5A  0A04               	xorlw	4
   433  006E5C  A4D8               	btfss	status,2,c
   434  006E5E  D004               	goto	l50
   435  006E60  0E04               	movlw	4
   436  006E62  CFE8 FE85          	movff	wreg,_ib_err
   437                           ;adc.c: 190: else if(adm.channle ==5)ic_err = 4;
   438  006E66  D008               	goto	l43
   439  006E68                     l50:
   440  006E68  C016  FFE8         	movff	_adm,wreg
   441  006E6C  0A05               	xorlw	5
   442  006E6E  A4D8               	btfss	status,2,c
   443  006E70  D003               	goto	l43
   444  006E72  0E04               	movlw	4
   445  006E74  CFE8 FE86          	movff	wreg,_ic_err
   446                           ;adc.c: 192: adm.channle++;
   447  006E78                     l43:
   448  006E78  0100               	movlb	_adm shr (0+8)
   449  006E7A  2B16               	incf	_adm& (0+255),f,b
   450                           ;adc.c: 193: if(adm.channle >= (adm.ch_num))
   451  006E7C  C018  FFE8         	movff	_adm+2,wreg
   452  006E80  5D16               	subwf	_adm& (0+255),w,b
   453  006E82  A0D8               	btfss	status,0,c
   454  006E84  D004               	goto	l53
   455                           ;adc.c: 194: {
   456  006E86  6B16               	clrf	_adm& (0+255),b
   457                           ;adc.c: 196: sys.err_judge_flag = 1;
   458  006E88  0E01               	movlw	1
   459  006E8A  CFE8 F161          	movff	wreg,_sys+79
   460  006E8E                     l53:
   461                           ;adc.c: 197: }
   462  006E8E  0100               	movlb	(_adm+1) shr (0+8)
   463  006E90  6B17               	clrf	(_adm+1)& (0+255),b
   464                           ;adc.c: 199: }
   465  006E92  0012               	return	
   466  006E94                     l54:
   467                           ;adc.c: 202: case 2:
   468                           ;adc.c: 203: adm.idle_time=0;
   469  006E94  0100               	movlb	(_adm+7) shr (0+8)
   470  006E96  6B1D               	clrf	(_adm+7)& (0+255),b
   471                           ;adc.c: 204: break;
   472  006E98  0012               	return	
   473  006E9A                     l55:
   474                           ;adc.c: 206: case 3:
   475                           ;adc.c: 207: adm.idle_time = 0;
   476  006E9A  0100               	movlb	(_adm+7) shr (0+8)
   477  006E9C  6B1D               	clrf	(_adm+7)& (0+255),b
   478                           ;adc.c: 208: cal_channle_val();
   479  006E9E  D9AD               	call	_cal_channle_val	;wreg free
   480                           ;adc.c: 209: adm.status = 0;
   481  006EA0  0100               	movlb	(_adm+1) shr (0+8)
   482  006EA2  6B17               	clrf	(_adm+1)& (0+255),b
   483                           ;adc.c: 210: break;
   484  006EA4  0012               	return	
   485  006EA6                     l27:
   486  006EA6  C017  FFE8         	movff	_adm+1,wreg
   487  006EAA  0A00               	xorlw	0
   488  006EAC  E101 D767          	bz	l28
   489  006EB0  0A01               	xorlw	1
   490  006EB2  E0A5               	bz	l40
   491  006EB4  0A03               	xorlw	3
   492  006EB6  E0EE               	bz	l54
   493  006EB8  0A01               	xorlw	1
   494  006EBA  E0EF               	bz	l55
   495  006EBC  0012               	return	
   496                           ;adc.c: 212: }
   497                           ;adc.c: 214: long root(long source)
   498                           ;adc.c: 215: {
   499                           ;       param _source assigned to ?_root+0
   500  006EBE  0041               	dw	?_root
   501  006EC0                     _root:
   502  000000                     
   503                           ;adc.c: 217: long temp;
   504  006EC0  0E07               	movlw	7
   505  006EC2  C041  F000         	movff	?_root,btemp
   506  006EC6  C042  F001         	movff	?_root+1,btemp+1
   507  006ECA  C043  F002         	movff	?_root+2,btemp+2
   508  006ECE  C044  F003         	movff	?_root+3,btemp+3
   509  006ED2  ECFD  F051         	call	alslr
   510  006ED6  C000  F045         	movff	btemp,?a_root
   511  006EDA  C001  F046         	movff	btemp+1,?a_root+1
   512  006EDE  C002  F047         	movff	btemp+2,?a_root+2
   513  006EE2  C003  F048         	movff	btemp+3,?a_root+3
   514                           ;adc.c: 221: temp +=31;
   515  006EE6  0100               	movlb	__Lparam shr (0+8)
   516  006EE8  0E1F               	movlw	31
   517  006EEA  2745               	addwf	?a_root^(__Lparam& (0+65280)),f
   518  006EEC  0E00               	movlw	0
   519  006EEE  2346               	addwfc	(?a_root+1)^(__Lparam& (0+65280)),f
   520  006EF0  2347               	addwfc	(?a_root+2)^(__Lparam& (0+65280)),f
   521  006EF2  2348               	addwfc	(?a_root+3)^(__Lparam& (0+65280)),f
   522                           ;adc.c: 223: for(i = 0; i < 6; i++)
   523  006EF4  6AF3               	clrf	prodl,c
   524  006EF6  6AF4               	clrf	prodh,c
   525  006EF8                     l57:
   526                           ;adc.c: 224: {
   527                           ;adc.c: 225: temp = (temp + source / temp) / 2;
   528  006EF8  C045  F004         	movff	?a_root,btemp+4
   529  006EFC  C046  F005         	movff	?a_root+1,btemp+5
   530  006F00  C047  F006         	movff	?a_root+2,btemp+6
   531  006F04  C048  F007         	movff	?a_root+3,btemp+7
   532  006F08  C041  F000         	movff	?_root,btemp
   533  006F0C  C042  F001         	movff	?_root+1,btemp+1
   534  006F10  C043  F002         	movff	?_root+2,btemp+2
   535  006F14  C044  F003         	movff	?_root+3,btemp+3
   536  006F18  EC7B  F051         	call	aldiv
   537  006F1C  0100               	movlb	__Lparam shr (0+8)
   538  006F1E  5145               	movf	?a_root^(__Lparam& (0+65280)),w
   539  006F20  2600               	addwf	btemp,f
   540  006F22  5146               	movf	(?a_root+1)^(__Lparam& (0+65280)),w
   541  006F24  2201               	addwfc	btemp+1,f
   542  006F26  5147               	movf	(?a_root+2)^(__Lparam& (0+65280)),w
   543  006F28  2202               	addwfc	btemp+2,f
   544  006F2A  5148               	movf	(?a_root+3)^(__Lparam& (0+65280)),w
   545  006F2C  2203               	addwfc	btemp+3,f
   546  006F2E  0E02               	movlw	2
   547  006F30  6E04               	movwf	btemp+4
   548  006F32  6A05               	clrf	btemp+5
   549  006F34  6A06               	clrf	btemp+6
   550  006F36  6A07               	clrf	btemp+7
   551  006F38  EC7B  F051         	call	aldiv
   552  006F3C  C000  F045         	movff	btemp,?a_root
   553  006F40  C001  F046         	movff	btemp+1,?a_root+1
   554  006F44  C002  F047         	movff	btemp+2,?a_root+2
   555  006F48  C003  F048         	movff	btemp+3,?a_root+3
   556                           ;adc.c: 226: }
   557  006F4C  4AF3               	infsnz	prodl,f,c
   558  006F4E  2AF4               	incf	prodh,f,c
   559  006F50  0E00               	movlw	0
   560  006F52  5CF4               	subwf	prodh,w,c
   561  006F54  0E06               	movlw	6
   562  006F56  B4D8               	btfsc	status,2,c
   563  006F58  5CF3               	subwf	prodl,w,c
   564  006F5A  A0D8               	btfss	status,0,c
   565  006F5C  D7CD               	goto	l57
   566                           ;adc.c: 227: return temp;
   567  006F5E  C045  F000         	movff	?a_root,btemp
   568  006F62  C046  F001         	movff	?a_root+1,btemp+1
   569  006F66  C047  F002         	movff	?a_root+2,btemp+2
   570  006F6A  C048  F003         	movff	?a_root+3,btemp+3
   571  006F6E  0012               	return	
   572                           ;adc.c: 228: }
   573  006F70  0029               	dw	?_pd_val
   574  006F72                     _pd_val:
   575  000000                     
   576                           ;adc.c: 233: if((nerr == 4)||(nerr == 0))
   577  006F72  0100               	movlb	__Lparam shr (0+8)
   578  006F74  5131               	movf	(?_pd_val+8)^(__Lparam& (0+65280)),w
   579  006F76  0A04               	xorlw	4
   580  006F78  A4D8               	btfss	status,2,c
   581  006F7A  5131               	movf	(?_pd_val+8)^(__Lparam& (0+65280)),w
   582  006F7C  A4D8               	btfss	status,2,c
   583  006F7E  D048               	goto	l61
   584                           ;adc.c: 234: {
   585  006F80  0100               	movlb	__Lparam shr (0+8)
   586  006F82  512A               	movf	(?_pd_val+1)^(__Lparam& (0+65280)),w
   587  006F84  5D2C               	subwf	(?_pd_val+3)^(__Lparam& (0+65280)),w
   588  006F86  E102               	bnz	u195
   589  006F88  5129               	movf	?_pd_val^(__Lparam& (0+65280)),w
   590  006F8A  5D2B               	subwf	(?_pd_val+2)^(__Lparam& (0+65280)),w
   591  006F8C                     u195:
   592  006F8C  B0D8               	btfsc	status,0,c
   593  006F8E  D003               	goto	l62
   594  006F90  0E03               	movlw	3
   595  006F92  6F31               	movwf	(?_pd_val+8)^(__Lparam& (0+65280))
   596                           ;adc.c: 236: else if((uav <= v1)&&(uav > v2))ner
      +                          r = 2;
   597  006F94  0012               	return	
   598  006F96                     l62:
   599  006F96  0100               	movlb	__Lparam shr (0+8)
   600  006F98  512A               	movf	(?_pd_val+1)^(__Lparam& (0+65280)),w
   601  006F9A  5D2C               	subwf	(?_pd_val+3)^(__Lparam& (0+65280)),w
   602  006F9C  E102               	bnz	u205
   603  006F9E  5129               	movf	?_pd_val^(__Lparam& (0+65280)),w
   604  006FA0  5D2B               	subwf	(?_pd_val+2)^(__Lparam& (0+65280)),w
   605  006FA2                     u205:
   606  006FA2  A0D8               	btfss	status,0,c
   607  006FA4  D00B               	goto	l64
   608  006FA6  512A               	movf	(?_pd_val+1)^(__Lparam& (0+65280)),w
   609  006FA8  5D2E               	subwf	(?_pd_val+5)^(__Lparam& (0+65280)),w
   610  006FAA  E102               	bnz	u215
   611  006FAC  5129               	movf	?_pd_val^(__Lparam& (0+65280)),w
   612  006FAE  5D2D               	subwf	(?_pd_val+4)^(__Lparam& (0+65280)),w
   613  006FB0                     u215:
   614  006FB0  B0D8               	btfsc	status,0,c
   615  006FB2  D004               	goto	l64
   616  006FB4  0E02               	movlw	2
   617  006FB6  0100               	movlb	__Lparam shr (0+8)
   618  006FB8  6F31               	movwf	(?_pd_val+8)^(__Lparam& (0+65280))
   619                           ;adc.c: 237: else if((uav <= v2)&&(uav > v3))ner
      +                          r = 1;
   620  006FBA  0012               	return	
   621  006FBC                     l64:
   622  006FBC  0100               	movlb	__Lparam shr (0+8)
   623  006FBE  512A               	movf	(?_pd_val+1)^(__Lparam& (0+65280)),w
   624  006FC0  5D2E               	subwf	(?_pd_val+5)^(__Lparam& (0+65280)),w
   625  006FC2  E102               	bnz	u235
   626  006FC4  5129               	movf	?_pd_val^(__Lparam& (0+65280)),w
   627  006FC6  5D2D               	subwf	(?_pd_val+4)^(__Lparam& (0+65280)),w
   628  006FC8                     u235:
   629  006FC8  A0D8               	btfss	status,0,c
   630  006FCA  D00B               	goto	l66
   631  006FCC  512A               	movf	(?_pd_val+1)^(__Lparam& (0+65280)),w
   632  006FCE  5D30               	subwf	(?_pd_val+7)^(__Lparam& (0+65280)),w
   633  006FD0  E102               	bnz	u245
   634  006FD2  5129               	movf	?_pd_val^(__Lparam& (0+65280)),w
   635  006FD4  5D2F               	subwf	(?_pd_val+6)^(__Lparam& (0+65280)),w
   636  006FD6                     u245:
   637  006FD6  B0D8               	btfsc	status,0,c
   638  006FD8  D004               	goto	l66
   639  006FDA  0E01               	movlw	1
   640  006FDC  0100               	movlb	__Lparam shr (0+8)
   641  006FDE  6F31               	movwf	(?_pd_val+8)^(__Lparam& (0+65280))
   642                           ;adc.c: 238: else if((uav <= v3)&&(uav > 0))nerr
      +                           = 0;
   643  006FE0  0012               	return	
   644  006FE2                     l66:
   645  006FE2  0100               	movlb	__Lparam shr (0+8)
   646  006FE4  512A               	movf	(?_pd_val+1)^(__Lparam& (0+65280)),w
   647  006FE6  5D30               	subwf	(?_pd_val+7)^(__Lparam& (0+65280)),w
   648  006FE8  E102               	bnz	u265
   649  006FEA  5129               	movf	?_pd_val^(__Lparam& (0+65280)),w
   650  006FEC  5D2F               	subwf	(?_pd_val+6)^(__Lparam& (0+65280)),w
   651  006FEE                     u265:
   652  006FEE  A0D8               	btfss	status,0,c
   653  006FF0  D007               	goto	l68
   654  006FF2  512A               	movf	(?_pd_val+1)^(__Lparam& (0+65280)),w
   655  006FF4  1129               	iorwf	?_pd_val^(__Lparam& (0+65280)),w
   656  006FF6  B4D8               	btfsc	status,2,c
   657  006FF8  D003               	goto	l68
   658  006FFA  0100               	movlb	__Lparam shr (0+8)
   659  006FFC  6B31               	clrf	(?_pd_val+8)^(__Lparam& (0+65280))
   660                           ;adc.c: 239: else if(uav == 0)nerr = 4;
   661  006FFE  0012               	return	
   662  007000                     l68:
   663  007000  0100               	movlb	__Lparam shr (0+8)
   664  007002  512A               	movf	(?_pd_val+1)^(__Lparam& (0+65280)),w
   665  007004  1129               	iorwf	?_pd_val^(__Lparam& (0+65280)),w
   666  007006  A4D8               	btfss	status,2,c
   667  007008  0012               	return	
   668  00700A  0E04               	movlw	4
   669  00700C  6F31               	movwf	(?_pd_val+8)^(__Lparam& (0+65280))
   670                           ;adc.c: 240: }
   671                           ;adc.c: 241: else if(nerr == 3)
   672  00700E  0012               	return	
   673  007010                     l61:
   674  007010  0100               	movlb	__Lparam shr (0+8)
   675  007012  5131               	movf	(?_pd_val+8)^(__Lparam& (0+65280)),w
   676  007014  0A03               	xorlw	3
   677  007016  A4D8               	btfss	status,2,c
   678  007018  D04D               	goto	l72
   679                           ;adc.c: 242: {
   680  00701A  512A               	movf	(?_pd_val+1)^(__Lparam& (0+65280)),w
   681  00701C  5D2C               	subwf	(?_pd_val+3)^(__Lparam& (0+65280)),w
   682  00701E  E102               	bnz	u315
   683  007020  5129               	movf	?_pd_val^(__Lparam& (0+65280)),w
   684  007022  5D2B               	subwf	(?_pd_val+2)^(__Lparam& (0+65280)),w
   685  007024                     u315:
   686  007024  B0D8               	btfsc	status,0,c
   687  007026  D003               	goto	l73
   688  007028  0E03               	movlw	3
   689  00702A  6F31               	movwf	(?_pd_val+8)^(__Lparam& (0+65280))
   690                           ;adc.c: 244: else if((uav <= v1-2)&&(uav > v2))n
      +                          err = 2;
   691  00702C  0012               	return	
   692  00702E                     l73:
   693  00702E  0100               	movlb	__Lparam shr (0+8)
   694  007030  0EFE               	movlw	254
   695  007032  252B               	addwf	(?_pd_val+2)^(__Lparam& (0+65280)),w
   696  007034  6E00               	movwf	btemp
   697  007036  0EFF               	movlw	255
   698  007038  212C               	addwfc	(?_pd_val+3)^(__Lparam& (0+65280)),w
   699  00703A  6E01               	movwf	btemp+1
   700  00703C  512A               	movf	(?_pd_val+1)^(__Lparam& (0+65280)),w
   701  00703E  5C01               	subwf	btemp+1,w
   702  007040  E102               	bnz	u325
   703  007042  5129               	movf	?_pd_val^(__Lparam& (0+65280)),w
   704  007044  5C00               	subwf	btemp,w
   705  007046                     u325:
   706  007046  A0D8               	btfss	status,0,c
   707  007048  D00B               	goto	l75
   708  00704A  512A               	movf	(?_pd_val+1)^(__Lparam& (0+65280)),w
   709  00704C  5D2E               	subwf	(?_pd_val+5)^(__Lparam& (0+65280)),w
   710  00704E  E102               	bnz	u335
   711  007050  5129               	movf	?_pd_val^(__Lparam& (0+65280)),w
   712  007052  5D2D               	subwf	(?_pd_val+4)^(__Lparam& (0+65280)),w
   713  007054                     u335:
   714  007054  B0D8               	btfsc	status,0,c
   715  007056  D004               	goto	l75
   716  007058  0E02               	movlw	2
   717  00705A  0100               	movlb	__Lparam shr (0+8)
   718  00705C  6F31               	movwf	(?_pd_val+8)^(__Lparam& (0+65280))
   719                           ;adc.c: 245: else if((uav <= v2)&&(uav > v3))ner
      +                          r = 1;
   720  00705E  0012               	return	
   721  007060                     l75:
   722  007060  0100               	movlb	__Lparam shr (0+8)
   723  007062  512A               	movf	(?_pd_val+1)^(__Lparam& (0+65280)),w
   724  007064  5D2E               	subwf	(?_pd_val+5)^(__Lparam& (0+65280)),w
   725  007066  E102               	bnz	u355
   726  007068  5129               	movf	?_pd_val^(__Lparam& (0+65280)),w
   727  00706A  5D2D               	subwf	(?_pd_val+4)^(__Lparam& (0+65280)),w
   728  00706C                     u355:
   729  00706C  A0D8               	btfss	status,0,c
   730  00706E  D00B               	goto	l77
   731  007070  512A               	movf	(?_pd_val+1)^(__Lparam& (0+65280)),w
   732  007072  5D30               	subwf	(?_pd_val+7)^(__Lparam& (0+65280)),w
   733  007074  E102               	bnz	u365
   734  007076  5129               	movf	?_pd_val^(__Lparam& (0+65280)),w
   735  007078  5D2F               	subwf	(?_pd_val+6)^(__Lparam& (0+65280)),w
   736  00707A                     u365:
   737  00707A  B0D8               	btfsc	status,0,c
   738  00707C  D004               	goto	l77
   739  00707E  0E01               	movlw	1
   740  007080  0100               	movlb	__Lparam shr (0+8)
   741  007082  6F31               	movwf	(?_pd_val+8)^(__Lparam& (0+65280))
   742                           ;adc.c: 246: else if((uav <= v3)&&(uav>0))nerr =
      +                           0;
   743  007084  0012               	return	
   744  007086                     l77:
   745  007086  0100               	movlb	__Lparam shr (0+8)
   746  007088  512A               	movf	(?_pd_val+1)^(__Lparam& (0+65280)),w
   747  00708A  5D30               	subwf	(?_pd_val+7)^(__Lparam& (0+65280)),w
   748  00708C  E102               	bnz	u385
   749  00708E  5129               	movf	?_pd_val^(__Lparam& (0+65280)),w
   750  007090  5D2F               	subwf	(?_pd_val+6)^(__Lparam& (0+65280)),w
   751  007092                     u385:
   752  007092  A0D8               	btfss	status,0,c
   753  007094  D007               	goto	l79
   754  007096  512A               	movf	(?_pd_val+1)^(__Lparam& (0+65280)),w
   755  007098  1129               	iorwf	?_pd_val^(__Lparam& (0+65280)),w
   756  00709A  B4D8               	btfsc	status,2,c
   757  00709C  D003               	goto	l79
   758  00709E  0100               	movlb	__Lparam shr (0+8)
   759  0070A0  6B31               	clrf	(?_pd_val+8)^(__Lparam& (0+65280))
   760                           ;adc.c: 247: else if(uav == 0)nerr = 4;
   761  0070A2  0012               	return	
   762  0070A4                     l79:
   763  0070A4  0100               	movlb	__Lparam shr (0+8)
   764  0070A6  512A               	movf	(?_pd_val+1)^(__Lparam& (0+65280)),w
   765  0070A8  1129               	iorwf	?_pd_val^(__Lparam& (0+65280)),w
   766  0070AA  A4D8               	btfss	status,2,c
   767  0070AC  0012               	return	
   768  0070AE  0E04               	movlw	4
   769  0070B0  6F31               	movwf	(?_pd_val+8)^(__Lparam& (0+65280))
   770                           ;adc.c: 248: }
   771                           ;adc.c: 249: else if(nerr == 2)
   772  0070B2  0012               	return	
   773  0070B4                     l72:
   774  0070B4  0100               	movlb	__Lparam shr (0+8)
   775  0070B6  5131               	movf	(?_pd_val+8)^(__Lparam& (0+65280)),w
   776  0070B8  0A02               	xorlw	2
   777  0070BA  A4D8               	btfss	status,2,c
   778  0070BC  D04D               	goto	l83
   779                           ;adc.c: 250: {
   780  0070BE  512A               	movf	(?_pd_val+1)^(__Lparam& (0+65280)),w
   781  0070C0  5D2C               	subwf	(?_pd_val+3)^(__Lparam& (0+65280)),w
   782  0070C2  E102               	bnz	u435
   783  0070C4  5129               	movf	?_pd_val^(__Lparam& (0+65280)),w
   784  0070C6  5D2B               	subwf	(?_pd_val+2)^(__Lparam& (0+65280)),w
   785  0070C8                     u435:
   786  0070C8  B0D8               	btfsc	status,0,c
   787  0070CA  D003               	goto	l84
   788  0070CC  0E03               	movlw	3
   789  0070CE  6F31               	movwf	(?_pd_val+8)^(__Lparam& (0+65280))
   790                           ;adc.c: 252: else if((uav <= v1)&&(uav > v2))ner
      +                          r = 2;
   791  0070D0  0012               	return	
   792  0070D2                     l84:
   793  0070D2  0100               	movlb	__Lparam shr (0+8)
   794  0070D4  512A               	movf	(?_pd_val+1)^(__Lparam& (0+65280)),w
   795  0070D6  5D2C               	subwf	(?_pd_val+3)^(__Lparam& (0+65280)),w
   796  0070D8  E102               	bnz	u445
   797  0070DA  5129               	movf	?_pd_val^(__Lparam& (0+65280)),w
   798  0070DC  5D2B               	subwf	(?_pd_val+2)^(__Lparam& (0+65280)),w
   799  0070DE                     u445:
   800  0070DE  A0D8               	btfss	status,0,c
   801  0070E0  D00B               	goto	l86
   802  0070E2  512A               	movf	(?_pd_val+1)^(__Lparam& (0+65280)),w
   803  0070E4  5D2E               	subwf	(?_pd_val+5)^(__Lparam& (0+65280)),w
   804  0070E6  E102               	bnz	u455
   805  0070E8  5129               	movf	?_pd_val^(__Lparam& (0+65280)),w
   806  0070EA  5D2D               	subwf	(?_pd_val+4)^(__Lparam& (0+65280)),w
   807  0070EC                     u455:
   808  0070EC  B0D8               	btfsc	status,0,c
   809  0070EE  D004               	goto	l86
   810  0070F0  0E02               	movlw	2
   811  0070F2  0100               	movlb	__Lparam shr (0+8)
   812  0070F4  6F31               	movwf	(?_pd_val+8)^(__Lparam& (0+65280))
   813                           ;adc.c: 253: else if((uav <= v2-2)&&(uav > v3))n
      +                          err = 1;
   814  0070F6  0012               	return	
   815  0070F8                     l86:
   816  0070F8  0100               	movlb	__Lparam shr (0+8)
   817  0070FA  0EFE               	movlw	254
   818  0070FC  252D               	addwf	(?_pd_val+4)^(__Lparam& (0+65280)),w
   819  0070FE  6E00               	movwf	btemp
   820  007100  0EFF               	movlw	255
   821  007102  212E               	addwfc	(?_pd_val+5)^(__Lparam& (0+65280)),w
   822  007104  6E01               	movwf	btemp+1
   823  007106  512A               	movf	(?_pd_val+1)^(__Lparam& (0+65280)),w
   824  007108  5C01               	subwf	btemp+1,w
   825  00710A  E102               	bnz	u475
   826  00710C  5129               	movf	?_pd_val^(__Lparam& (0+65280)),w
   827  00710E  5C00               	subwf	btemp,w
   828  007110                     u475:
   829  007110  A0D8               	btfss	status,0,c
   830  007112  D00B               	goto	l88
   831  007114  512A               	movf	(?_pd_val+1)^(__Lparam& (0+65280)),w
   832  007116  5D30               	subwf	(?_pd_val+7)^(__Lparam& (0+65280)),w
   833  007118  E102               	bnz	u485
   834  00711A  5129               	movf	?_pd_val^(__Lparam& (0+65280)),w
   835  00711C  5D2F               	subwf	(?_pd_val+6)^(__Lparam& (0+65280)),w
   836  00711E                     u485:
   837  00711E  B0D8               	btfsc	status,0,c
   838  007120  D004               	goto	l88
   839  007122  0E01               	movlw	1
   840  007124  0100               	movlb	__Lparam shr (0+8)
   841  007126  6F31               	movwf	(?_pd_val+8)^(__Lparam& (0+65280))
   842                           ;adc.c: 254: else if((uav <= v3)&&(uav>0))nerr =
      +                           0;
   843  007128  0012               	return	
   844  00712A                     l88:
   845  00712A  0100               	movlb	__Lparam shr (0+8)
   846  00712C  512A               	movf	(?_pd_val+1)^(__Lparam& (0+65280)),w
   847  00712E  5D30               	subwf	(?_pd_val+7)^(__Lparam& (0+65280)),w
   848  007130  E102               	bnz	u505
   849  007132  5129               	movf	?_pd_val^(__Lparam& (0+65280)),w
   850  007134  5D2F               	subwf	(?_pd_val+6)^(__Lparam& (0+65280)),w
   851  007136                     u505:
   852  007136  A0D8               	btfss	status,0,c
   853  007138  D007               	goto	l90
   854  00713A  512A               	movf	(?_pd_val+1)^(__Lparam& (0+65280)),w
   855  00713C  1129               	iorwf	?_pd_val^(__Lparam& (0+65280)),w
   856  00713E  B4D8               	btfsc	status,2,c
   857  007140  D003               	goto	l90
   858  007142  0100               	movlb	__Lparam shr (0+8)
   859  007144  6B31               	clrf	(?_pd_val+8)^(__Lparam& (0+65280))
   860                           ;adc.c: 255: else if(uav == 0)nerr = 4;
   861  007146  0012               	return	
   862  007148                     l90:
   863  007148  0100               	movlb	__Lparam shr (0+8)
   864  00714A  512A               	movf	(?_pd_val+1)^(__Lparam& (0+65280)),w
   865  00714C  1129               	iorwf	?_pd_val^(__Lparam& (0+65280)),w
   866  00714E  A4D8               	btfss	status,2,c
   867  007150  0012               	return	
   868  007152  0E04               	movlw	4
   869  007154  6F31               	movwf	(?_pd_val+8)^(__Lparam& (0+65280))
   870                           ;adc.c: 256: }
   871                           ;adc.c: 257: else if(nerr == 1)
   872  007156  0012               	return	
   873  007158                     l83:
   874  007158  0100               	movlb	__Lparam shr (0+8)
   875  00715A  0531               	decf	(?_pd_val+8)^(__Lparam& (0+65280)),w
   876  00715C  A4D8               	btfss	status,2,c
   877  00715E  0012               	return	
   878                           ;adc.c: 258: {
   879  007160  512A               	movf	(?_pd_val+1)^(__Lparam& (0+65280)),w
   880  007162  5D2C               	subwf	(?_pd_val+3)^(__Lparam& (0+65280)),w
   881  007164  E102               	bnz	u555
   882  007166  5129               	movf	?_pd_val^(__Lparam& (0+65280)),w
   883  007168  5D2B               	subwf	(?_pd_val+2)^(__Lparam& (0+65280)),w
   884  00716A                     u555:
   885  00716A  B0D8               	btfsc	status,0,c
   886  00716C  D003               	goto	l95
   887  00716E  0E03               	movlw	3
   888  007170  6F31               	movwf	(?_pd_val+8)^(__Lparam& (0+65280))
   889                           ;adc.c: 260: else if((uav <= v1)&&(uav > v2))ner
      +                          r = 2;
   890  007172  0012               	return	
   891  007174                     l95:
   892  007174  0100               	movlb	__Lparam shr (0+8)
   893  007176  512A               	movf	(?_pd_val+1)^(__Lparam& (0+65280)),w
   894  007178  5D2C               	subwf	(?_pd_val+3)^(__Lparam& (0+65280)),w
   895  00717A  E102               	bnz	u565
   896  00717C  5129               	movf	?_pd_val^(__Lparam& (0+65280)),w
   897  00717E  5D2B               	subwf	(?_pd_val+2)^(__Lparam& (0+65280)),w
   898  007180                     u565:
   899  007180  A0D8               	btfss	status,0,c
   900  007182  D00B               	goto	l97
   901  007184  512A               	movf	(?_pd_val+1)^(__Lparam& (0+65280)),w
   902  007186  5D2E               	subwf	(?_pd_val+5)^(__Lparam& (0+65280)),w
   903  007188  E102               	bnz	u575
   904  00718A  5129               	movf	?_pd_val^(__Lparam& (0+65280)),w
   905  00718C  5D2D               	subwf	(?_pd_val+4)^(__Lparam& (0+65280)),w
   906  00718E                     u575:
   907  00718E  B0D8               	btfsc	status,0,c
   908  007190  D004               	goto	l97
   909  007192  0E02               	movlw	2
   910  007194  0100               	movlb	__Lparam shr (0+8)
   911  007196  6F31               	movwf	(?_pd_val+8)^(__Lparam& (0+65280))
   912                           ;adc.c: 261: else if((uav <= v2)&&(uav > v3))ner
      +                          r = 1;
   913  007198  0012               	return	
   914  00719A                     l97:
   915  00719A  0100               	movlb	__Lparam shr (0+8)
   916  00719C  512A               	movf	(?_pd_val+1)^(__Lparam& (0+65280)),w
   917  00719E  5D2E               	subwf	(?_pd_val+5)^(__Lparam& (0+65280)),w
   918  0071A0  E102               	bnz	u595
   919  0071A2  5129               	movf	?_pd_val^(__Lparam& (0+65280)),w
   920  0071A4  5D2D               	subwf	(?_pd_val+4)^(__Lparam& (0+65280)),w
   921  0071A6                     u595:
   922  0071A6  A0D8               	btfss	status,0,c
   923  0071A8  D00B               	goto	l99
   924  0071AA  512A               	movf	(?_pd_val+1)^(__Lparam& (0+65280)),w
   925  0071AC  5D30               	subwf	(?_pd_val+7)^(__Lparam& (0+65280)),w
   926  0071AE  E102               	bnz	u605
   927  0071B0  5129               	movf	?_pd_val^(__Lparam& (0+65280)),w
   928  0071B2  5D2F               	subwf	(?_pd_val+6)^(__Lparam& (0+65280)),w
   929  0071B4                     u605:
   930  0071B4  B0D8               	btfsc	status,0,c
   931  0071B6  D004               	goto	l99
   932  0071B8  0E01               	movlw	1
   933  0071BA  0100               	movlb	__Lparam shr (0+8)
   934  0071BC  6F31               	movwf	(?_pd_val+8)^(__Lparam& (0+65280))
   935                           ;adc.c: 262: else if((uav <= v3-2)&&(uav>0))nerr
      +                           = 0;
   936  0071BE  0012               	return	
   937  0071C0                     l99:
   938  0071C0  0100               	movlb	__Lparam shr (0+8)
   939  0071C2  0EFE               	movlw	254
   940  0071C4  252F               	addwf	(?_pd_val+6)^(__Lparam& (0+65280)),w
   941  0071C6  6E00               	movwf	btemp
   942  0071C8  0EFF               	movlw	255
   943  0071CA  2130               	addwfc	(?_pd_val+7)^(__Lparam& (0+65280)),w
   944  0071CC  6E01               	movwf	btemp+1
   945  0071CE  512A               	movf	(?_pd_val+1)^(__Lparam& (0+65280)),w
   946  0071D0  5C01               	subwf	btemp+1,w
   947  0071D2  E102               	bnz	u625
   948  0071D4  5129               	movf	?_pd_val^(__Lparam& (0+65280)),w
   949  0071D6  5C00               	subwf	btemp,w
   950  0071D8                     u625:
   951  0071D8  A0D8               	btfss	status,0,c
   952  0071DA  D007               	goto	l101
   953  0071DC  512A               	movf	(?_pd_val+1)^(__Lparam& (0+65280)),w
   954  0071DE  1129               	iorwf	?_pd_val^(__Lparam& (0+65280)),w
   955  0071E0  B4D8               	btfsc	status,2,c
   956  0071E2  D003               	goto	l101
   957  0071E4  0100               	movlb	__Lparam shr (0+8)
   958  0071E6  6B31               	clrf	(?_pd_val+8)^(__Lparam& (0+65280))
   959                           ;adc.c: 263: else if(uav == 0)nerr = 4;
   960  0071E8  0012               	return	
   961  0071EA                     l101:
   962  0071EA  0100               	movlb	__Lparam shr (0+8)
   963  0071EC  512A               	movf	(?_pd_val+1)^(__Lparam& (0+65280)),w
   964  0071EE  1129               	iorwf	?_pd_val^(__Lparam& (0+65280)),w
   965  0071F0  A4D8               	btfss	status,2,c
   966  0071F2  0012               	return	
   967  0071F4  0E04               	movlw	4
   968  0071F6  6F31               	movwf	(?_pd_val+8)^(__Lparam& (0+65280))
   969                           ;adc.c: 265: }
   970                           ;adc.c: 268: }
   971  0071F8  0012               	return	
   972                           ;adc.c: 269: void cal_channle_val(void)
   973                           ;adc.c: 270: {
   974  0071FA                     _cal_channle_val:
   975  000000                     
   976                           ;adc.c: 271: unsigned long d1,d2,d3,d,temp;
   977  0071FA  EE00  F019         	lfsr	0,_adm+3
   978  0071FE  CFEE F000          	movff	postinc0,btemp
   979  007202  CFED F001          	movff	postdec0,btemp+1
   980  007206  5000               	movf	btemp,w
   981  007208  0100               	movlb	__Lparam shr (0+8)
   982  00720A  6F2D               	movwf	(?a_cal_channle_val+4)^(__Lparam& (0+6528
      +                          0))
   983  00720C  5001               	movf	btemp+1,w
   984  00720E  6F2E               	movwf	((?a_cal_channle_val+4)^(__Lparam& (0+652
      +                          80))+1)
   985  007210  6B2F               	clrf	(?a_cal_channle_val+6)^(__Lparam& (0+65280
      +                          ))
   986  007212  6B30               	clrf	(?a_cal_channle_val+7)^(__Lparam& (0+65280
      +                          ))
   987                           ;adc.c: 276: d2 = adm.ad2;
   988  007214  EE00  F01B         	lfsr	0,_adm+5
   989  007218  CFEE F000          	movff	postinc0,btemp
   990  00721C  CFED F001          	movff	postdec0,btemp+1
   991  007220  5000               	movf	btemp,w
   992  007222  6F31               	movwf	(?a_cal_channle_val+8)^(__Lparam& (0+6528
      +                          0))
   993  007224  5001               	movf	btemp+1,w
   994  007226  6F32               	movwf	((?a_cal_channle_val+8)^(__Lparam& (0+652
      +                          80))+1)
   995  007228  6B33               	clrf	(?a_cal_channle_val+10)^(__Lparam& (0+6528
      +                          0))
   996  00722A  6B34               	clrf	(?a_cal_channle_val+11)^(__Lparam& (0+6528
      +                          0))
   997                           ;adc.c: 279: d3 = d1*d1 + d2*d2;
   998  00722C  C031  F004         	movff	?a_cal_channle_val+8,btemp+4
   999  007230  C032  F005         	movff	?a_cal_channle_val+9,btemp+5
  1000  007234  C033  F006         	movff	?a_cal_channle_val+10,btemp+6
  1001  007238  C034  F007         	movff	?a_cal_channle_val+11,btemp+7
  1002  00723C  C031  F000         	movff	?a_cal_channle_val+8,btemp
  1003  007240  C032  F001         	movff	?a_cal_channle_val+9,btemp+1
  1004  007244  C033  F002         	movff	?a_cal_channle_val+10,btemp+2
  1005  007248  C034  F003         	movff	?a_cal_channle_val+11,btemp+3
  1006  00724C  ECAF  F050         	call	llmul
  1007  007250  C000  F03D         	movff	btemp,?a_cal_channle_val+20
  1008  007254  C001  F03E         	movff	btemp+1,?a_cal_channle_val+21
  1009  007258  C002  F03F         	movff	btemp+2,?a_cal_channle_val+22
  1010  00725C  C003  F040         	movff	btemp+3,?a_cal_channle_val+23
  1011  007260  C02D  F004         	movff	?a_cal_channle_val+4,btemp+4
  1012  007264  C02E  F005         	movff	?a_cal_channle_val+5,btemp+5
  1013  007268  C02F  F006         	movff	?a_cal_channle_val+6,btemp+6
  1014  00726C  C030  F007         	movff	?a_cal_channle_val+7,btemp+7
  1015  007270  C02D  F000         	movff	?a_cal_channle_val+4,btemp
  1016  007274  C02E  F001         	movff	?a_cal_channle_val+5,btemp+1
  1017  007278  C02F  F002         	movff	?a_cal_channle_val+6,btemp+2
  1018  00727C  C030  F003         	movff	?a_cal_channle_val+7,btemp+3
  1019  007280  ECAF  F050         	call	llmul
  1020  007284  513D               	movf	(?a_cal_channle_val+20)^(__Lparam& (0+6528
      +                          0)),w
  1021  007286  2400               	addwf	btemp,w
  1022  007288  6F29               	movwf	?a_cal_channle_val^(__Lparam& (0+65280))
  1023  00728A  513E               	movf	(?a_cal_channle_val+21)^(__Lparam& (0+6528
      +                          0)),w
  1024  00728C  2001               	addwfc	btemp+1,w
  1025  00728E  6F2A               	movwf	(?a_cal_channle_val^(__Lparam& (0+65280))
      +                          +1)
  1026  007290  513F               	movf	(?a_cal_channle_val+22)^(__Lparam& (0+6528
      +                          0)),w
  1027  007292  2002               	addwfc	btemp+2,w
  1028  007294  6F2B               	movwf	(?a_cal_channle_val^(__Lparam& (0+65280))
      +                          +2)
  1029  007296  5140               	movf	(?a_cal_channle_val+23)^(__Lparam& (0+6528
      +                          0)),w
  1030  007298  2003               	addwfc	btemp+3,w
  1031  00729A  6F2C               	movwf	(?a_cal_channle_val^(__Lparam& (0+65280))
      +                          +3)
  1032                           ;adc.c: 280: d = root(d3);
  1033  00729C  C029  F041         	movff	?a_cal_channle_val,?_root
  1034  0072A0  C02A  F042         	movff	?a_cal_channle_val+1,?_root+1
  1035  0072A4  C02B  F043         	movff	?a_cal_channle_val+2,?_root+2
  1036  0072A8  C02C  F044         	movff	?a_cal_channle_val+3,?_root+3
  1037  0072AC  DE09               	call	_root	;wreg free
  1038  0072AE  C000  F035         	movff	btemp,?a_cal_channle_val+12
  1039  0072B2  C001  F036         	movff	btemp+1,?a_cal_channle_val+13
  1040  0072B6  C002  F037         	movff	btemp+2,?a_cal_channle_val+14
  1041  0072BA  C003  F038         	movff	btemp+3,?a_cal_channle_val+15
  1042                           ;adc.c: 283: if(adm.sam_count == 0)
  1043  0072BE  EE00  F024         	lfsr	0,_adm+14
  1044  0072C2  50EF               	movf	indf0,w,c
  1045  0072C4  A4D8               	btfss	status,2,c
  1046  0072C6  D00D               	goto	l105
  1047                           ;adc.c: 284: {
  1048  0072C8  C035  F020         	movff	?a_cal_channle_val+12,_adm+10
  1049  0072CC  C036  F021         	movff	?a_cal_channle_val+13,_adm+11
  1050                           ;adc.c: 286: adm.min_val = d;
  1051  0072D0  C035  F022         	movff	?a_cal_channle_val+12,_adm+12
  1052  0072D4  C036  F023         	movff	?a_cal_channle_val+13,_adm+13
  1053                           ;adc.c: 287: adm.sum_val = d;
  1054  0072D8  C035  F01E         	movff	?a_cal_channle_val+12,_adm+8
  1055  0072DC  C036  F01F         	movff	?a_cal_channle_val+13,_adm+9
  1056                           ;adc.c: 288: }
  1057  0072E0  D042               	goto	l106
  1058  0072E2                     l105:
  1059                           ;adc.c: 290: {
  1060  0072E2  EE00  F01E         	lfsr	0,_adm+8
  1061  0072E6  CFEE F000          	movff	postinc0,btemp
  1062  0072EA  CFED F001          	movff	postdec0,btemp+1
  1063  0072EE  0100               	movlb	__Lparam shr (0+8)
  1064  0072F0  5135               	movf	(?a_cal_channle_val+12)^(__Lparam& (0+6528
      +                          0)),w
  1065  0072F2  2400               	addwf	btemp,w
  1066  0072F4  CFE8 F01E          	movff	wreg,_adm+8
  1067  0072F8  5136               	movf	(?a_cal_channle_val+13)^(__Lparam& (0+6528
      +                          0)),w
  1068  0072FA  2001               	addwfc	btemp+1,w
  1069  0072FC  CFE8 F01F          	movff	wreg,_adm+9
  1070                           ;adc.c: 292: if(d > adm.max_val)adm.max_val = d;
  1071  007300  EE00  F020         	lfsr	0,_adm+10
  1072  007304  CFEE F000          	movff	postinc0,btemp
  1073  007308  CFED F001          	movff	postdec0,btemp+1
  1074  00730C  6A02               	clrf	btemp+2
  1075  00730E  6A03               	clrf	btemp+3
  1076  007310  5138               	movf	(?a_cal_channle_val+15)^(__Lparam& (0+6528
      +                          0)),w
  1077  007312  5C03               	subwf	btemp+3,w
  1078  007314  E108               	bnz	u675
  1079  007316  5137               	movf	(?a_cal_channle_val+14)^(__Lparam& (0+6528
      +                          0)),w
  1080  007318  5C02               	subwf	btemp+2,w
  1081  00731A  E105               	bnz	u675
  1082  00731C  5136               	movf	(?a_cal_channle_val+13)^(__Lparam& (0+6528
      +                          0)),w
  1083  00731E  5C01               	subwf	btemp+1,w
  1084  007320  E102               	bnz	u675
  1085  007322  5135               	movf	(?a_cal_channle_val+12)^(__Lparam& (0+6528
      +                          0)),w
  1086  007324  5C00               	subwf	btemp,w
  1087  007326                     u675:
  1088  007326  B0D8               	btfsc	status,0,c
  1089  007328  D004               	goto	l107
  1090  00732A  C035  F020         	movff	?a_cal_channle_val+12,_adm+10
  1091  00732E  C036  F021         	movff	?a_cal_channle_val+13,_adm+11
  1092  007332                     l107:
  1093                           ;adc.c: 293: if(d < adm.min_val)adm.min_val = d;
  1094  007332  EE00  F022         	lfsr	0,_adm+12
  1095  007336  CFEE F000          	movff	postinc0,btemp
  1096  00733A  CFED F001          	movff	postdec0,btemp+1
  1097  00733E  6A02               	clrf	btemp+2
  1098  007340  6A03               	clrf	btemp+3
  1099  007342  0100               	movlb	__Lparam shr (0+8)
  1100  007344  5003               	movf	btemp+3,w
  1101  007346  5D38               	subwf	(?a_cal_channle_val+15)^(__Lparam& (0+652
      +                          80)),w
  1102  007348  E108               	bnz	u685
  1103  00734A  5002               	movf	btemp+2,w
  1104  00734C  5D37               	subwf	(?a_cal_channle_val+14)^(__Lparam& (0+652
      +                          80)),w
  1105  00734E  E105               	bnz	u685
  1106  007350  5001               	movf	btemp+1,w
  1107  007352  5D36               	subwf	(?a_cal_channle_val+13)^(__Lparam& (0+652
      +                          80)),w
  1108  007354  E102               	bnz	u685
  1109  007356  5000               	movf	btemp,w
  1110  007358  5D35               	subwf	(?a_cal_channle_val+12)^(__Lparam& (0+652
      +                          80)),w
  1111  00735A                     u685:
  1112  00735A  B0D8               	btfsc	status,0,c
  1113  00735C  D004               	goto	l106
  1114  00735E  C035  F022         	movff	?a_cal_channle_val+12,_adm+12
  1115  007362  C036  F023         	movff	?a_cal_channle_val+13,_adm+13
  1116                           ;adc.c: 295: }
  1117  007366                     l106:
  1118                           ;adc.c: 297: adm.sam_count++;
  1119  007366  0100               	movlb	(_adm+14) shr (0+8)
  1120  007368  2B24               	incf	(_adm+14)& (0+255),f,b
  1121                           ;adc.c: 298: if(adm.sam_count >= 10)
  1122  00736A  0E09               	movlw	9
  1123  00736C  6524               	cpfsgt	(_adm+14)& (0+255),b
  1124  00736E  0012               	return	
  1125                           ;adc.c: 299: {
  1126  007370  6B24               	clrf	(_adm+14)& (0+255),b
  1127                           ;adc.c: 301: adm.sum_val = adm.sum_val - adm.max
      +                          _val - adm.min_val;
  1128  007372  EE00  F01E         	lfsr	0,_adm+8
  1129  007376  CFEE F000          	movff	postinc0,btemp
  1130  00737A  CFED F001          	movff	postdec0,btemp+1
  1131  00737E  C020  FFE8         	movff	_adm+10,wreg
  1132  007382  5C00               	subwf	btemp,w
  1133  007384  6E02               	movwf	btemp+2
  1134  007386  C021  FFE8         	movff	_adm+11,wreg
  1135  00738A  5801               	subwfb	btemp+1,w
  1136  00738C  6E03               	movwf	btemp+3
  1137  00738E  C022  FFE8         	movff	_adm+12,wreg
  1138  007392  5C02               	subwf	btemp+2,w
  1139  007394  CFE8 F01E          	movff	wreg,_adm+8
  1140  007398  C023  FFE8         	movff	_adm+13,wreg
  1141  00739C  5803               	subwfb	btemp+3,w
  1142  00739E  CFE8 F01F          	movff	wreg,_adm+9
  1143                           ;adc.c: 302: temp= adm.sum_val;
  1144  0073A2  EE00  F01E         	lfsr	0,_adm+8
  1145  0073A6  CFEE F000          	movff	postinc0,btemp
  1146  0073AA  CFED F001          	movff	postdec0,btemp+1
  1147  0073AE  5000               	movf	btemp,w
  1148  0073B0  0100               	movlb	__Lparam shr (0+8)
  1149  0073B2  6F39               	movwf	(?a_cal_channle_val+16)^(__Lparam& (0+652
      +                          80))
  1150  0073B4  5001               	movf	btemp+1,w
  1151  0073B6  6F3A               	movwf	((?a_cal_channle_val+16)^(__Lparam& (0+65
      +                          280))+1)
  1152  0073B8  6B3B               	clrf	(?a_cal_channle_val+18)^(__Lparam& (0+6528
      +                          0))
  1153  0073BA  6B3C               	clrf	(?a_cal_channle_val+19)^(__Lparam& (0+6528
      +                          0))
  1154                           ;adc.c: 304: temp= temp / 8;
  1155  0073BC  0E03               	movlw	3
  1156  0073BE  6E00               	movwf	btemp
  1157  0073C0                     u705:
  1158  0073C0  90D8               	bcf	status,0,c
  1159  0073C2  333C               	rrcf	(?a_cal_channle_val+19)^(__Lparam& (0+6528
      +                          0)),f
  1160  0073C4  333B               	rrcf	(?a_cal_channle_val+18)^(__Lparam& (0+6528
      +                          0)),f
  1161  0073C6  333A               	rrcf	(?a_cal_channle_val+17)^(__Lparam& (0+6528
      +                          0)),f
  1162  0073C8  3339               	rrcf	(?a_cal_channle_val+16)^(__Lparam& (0+6528
      +                          0)),f
  1163  0073CA  2E00               	decfsz	btemp,f
  1164  0073CC  D7F9               	goto	u705
  1165                           ;adc.c: 305: temp = temp * 500;
  1166  0073CE  0EF4               	movlw	244
  1167  0073D0  6E04               	movwf	btemp+4
  1168  0073D2  0E01               	movlw	1
  1169  0073D4  6E05               	movwf	btemp+5
  1170  0073D6  6A06               	clrf	btemp+6
  1171  0073D8  6A07               	clrf	btemp+7
  1172  0073DA  0E39               	movlw	low (?a_cal_channle_val+16)
  1173  0073DC  6EE9               	movwf	fsr0l,c
  1174  0073DE  0E00               	movlw	high (?a_cal_channle_val+16)
  1175  0073E0  6EEA               	movwf	fsr0h,c
  1176  0073E2  EC11  F052         	call	llmul_f
  1177                           ;adc.c: 306: temp = temp / 1024;
  1178  0073E6  0E0A               	movlw	10
  1179  0073E8  6E00               	movwf	btemp
  1180  0073EA                     u715:
  1181  0073EA  90D8               	bcf	status,0,c
  1182  0073EC  333C               	rrcf	(?a_cal_channle_val+19)^(__Lparam& (0+6528
      +                          0)),f
  1183  0073EE  333B               	rrcf	(?a_cal_channle_val+18)^(__Lparam& (0+6528
      +                          0)),f
  1184  0073F0  333A               	rrcf	(?a_cal_channle_val+17)^(__Lparam& (0+6528
      +                          0)),f
  1185  0073F2  3339               	rrcf	(?a_cal_channle_val+16)^(__Lparam& (0+6528
      +                          0)),f
  1186  0073F4  2E00               	decfsz	btemp,f
  1187  0073F6  D7F9               	goto	u715
  1188                           ;adc.c: 308: switch(adm.channle)
  1189  0073F8  EF52  F044         	goto	l111
  1190  0073FC                     l112:
  1191                           ;adc.c: 309: {
  1192                           ;adc.c: 311: temp = temp*10/33;
  1193  0073FC  0E0A               	movlw	10
  1194  0073FE  6E04               	movwf	btemp+4
  1195  007400  6A05               	clrf	btemp+5
  1196  007402  6A06               	clrf	btemp+6
  1197  007404  6A07               	clrf	btemp+7
  1198  007406  C039  F000         	movff	?a_cal_channle_val+16,btemp
  1199  00740A  C03A  F001         	movff	?a_cal_channle_val+17,btemp+1
  1200  00740E  C03B  F002         	movff	?a_cal_channle_val+18,btemp+2
  1201  007412  C03C  F003         	movff	?a_cal_channle_val+19,btemp+3
  1202  007416  ECAF  F050         	call	llmul
  1203  00741A  0E21               	movlw	33
  1204  00741C  6E04               	movwf	btemp+4
  1205  00741E  6A05               	clrf	btemp+5
  1206  007420  6A06               	clrf	btemp+6
  1207  007422  6A07               	clrf	btemp+7
  1208  007424  EC1D  F007         	call	lldiv
  1209  007428  C000  F039         	movff	btemp,?a_cal_channle_val+16
  1210  00742C  C001  F03A         	movff	btemp+1,?a_cal_channle_val+17
  1211  007430  C002  F03B         	movff	btemp+2,?a_cal_channle_val+18
  1212  007434  C003  F03C         	movff	btemp+3,?a_cal_channle_val+19
  1213                           ;adc.c: 312: sys.uav = temp;
  1214  007438  C039  F112         	movff	?a_cal_channle_val+16,_sys
  1215  00743C  C03A  F113         	movff	?a_cal_channle_val+17,_sys+1
  1216                           ;adc.c: 321: if((ua_err== 4)||(ua_err == 0))
  1217  007440  CE87  FFE8         	movff	_ua_err,wreg
  1218  007444  0A04               	xorlw	4
  1219  007446  B4D8               	btfsc	status,2,c
  1220  007448  D004               	goto	u740
  1221  00744A  010E               	movlb	_ua_err shr (0+8)
  1222  00744C  5387               	movf	_ua_err& (0+255),f,b
  1223  00744E  A4D8               	btfss	status,2,c
  1224  007450  D065               	goto	l113
  1225  007452                     u740:
  1226                           ;adc.c: 322: {
  1227  007452  C112  F000         	movff	_sys,btemp
  1228  007456  C113  F001         	movff	_sys+1,btemp+1
  1229  00745A  EE01  F04C         	lfsr	0,_sys+58
  1230  00745E  CFEE F002          	movff	postinc0,btemp+2
  1231  007462  CFED F003          	movff	postdec0,btemp+3
  1232  007466  5001               	movf	btemp+1,w
  1233  007468  5C03               	subwf	btemp+3,w
  1234  00746A  E102               	bnz	u755
  1235  00746C  5000               	movf	btemp,w
  1236  00746E  5C02               	subwf	btemp+2,w
  1237  007470                     u755:
  1238  007470  A0D8               	btfss	status,0,c
  1239  007472  D0DF               	goto	L24
  1240                           ;adc.c: 324: else if((sys.uav <= sys.v1)&&(sys.u
      +                          av > sys.v2))ua_err = 2;
  1241  007474  C112  F000         	movff	_sys,btemp
  1242  007478  C113  F001         	movff	_sys+1,btemp+1
  1243  00747C  EE01  F04C         	lfsr	0,_sys+58
  1244  007480  CFEE F002          	movff	postinc0,btemp+2
  1245  007484  CFED F003          	movff	postdec0,btemp+3
  1246  007488  5001               	movf	btemp+1,w
  1247  00748A  5C03               	subwf	btemp+3,w
  1248  00748C  E102               	bnz	u765
  1249  00748E  5000               	movf	btemp,w
  1250  007490  5C02               	subwf	btemp+2,w
  1251  007492                     u765:
  1252  007492  C112  F000         	movff	_sys,btemp
  1253  007496  A0D8               	btfss	status,0,c
  1254  007498  D011               	goto	L75
  1255  00749A  C113  F001         	movff	_sys+1,btemp+1
  1256  00749E  EE01  F04E         	lfsr	0,_sys+60
  1257  0074A2  CFEE F002          	movff	postinc0,btemp+2
  1258  0074A6  CFED F003          	movff	postdec0,btemp+3
  1259  0074AA  5001               	movf	btemp+1,w
  1260  0074AC  5C03               	subwf	btemp+3,w
  1261  0074AE  E102               	bnz	u775
  1262  0074B0  5000               	movf	btemp,w
  1263  0074B2  5C02               	subwf	btemp+2,w
  1264  0074B4                     u775:
  1265  0074B4  A0D8               	btfss	status,0,c
  1266  0074B6  D158               	goto	L27
  1267                           ;adc.c: 325: else if((sys.uav <= sys.v2)&&(sys.u
      +                          av > sys.v3))ua_err = 1;
  1268  0074B8  C112  F000         	movff	_sys,btemp
  1269  0074BC                     L75:
  1270  0074BC  C113  F001         	movff	_sys+1,btemp+1
  1271  0074C0  EE01  F04E         	lfsr	0,_sys+60
  1272  0074C4  CFEE F002          	movff	postinc0,btemp+2
  1273  0074C8  CFED F003          	movff	postdec0,btemp+3
  1274  0074CC  5001               	movf	btemp+1,w
  1275  0074CE  5C03               	subwf	btemp+3,w
  1276  0074D0  E102               	bnz	u795
  1277  0074D2  5000               	movf	btemp,w
  1278  0074D4  5C02               	subwf	btemp+2,w
  1279  0074D6                     u795:
  1280  0074D6  C112  F000         	movff	_sys,btemp
  1281  0074DA  A0D8               	btfss	status,0,c
  1282  0074DC  D011               	goto	L76
  1283  0074DE  C113  F001         	movff	_sys+1,btemp+1
  1284  0074E2  EE01  F050         	lfsr	0,_sys+62
  1285  0074E6  CFEE F002          	movff	postinc0,btemp+2
  1286  0074EA  CFED F003          	movff	postdec0,btemp+3
  1287  0074EE  5001               	movf	btemp+1,w
  1288  0074F0  5C03               	subwf	btemp+3,w
  1289  0074F2  E102               	bnz	u805
  1290  0074F4  5000               	movf	btemp,w
  1291  0074F6  5C02               	subwf	btemp+2,w
  1292  0074F8                     u805:
  1293  0074F8  A0D8               	btfss	status,0,c
  1294  0074FA  D15A               	goto	L28
  1295                           ;adc.c: 326: else if((sys.uav <= sys.v3)&&(sys.u
      +                          av > 0))ua_err = 0;
  1296  0074FC  C112  F000         	movff	_sys,btemp
  1297  007500                     L76:
  1298  007500  C113  F001         	movff	_sys+1,btemp+1
  1299  007504  EE01  F050         	lfsr	0,_sys+62
  1300  007508  CFEE F002          	movff	postinc0,btemp+2
  1301  00750C  CFED F003          	movff	postdec0,btemp+3
  1302  007510  5001               	movf	btemp+1,w
  1303  007512  5C03               	subwf	btemp+3,w
  1304  007514  E102               	bnz	u825
  1305  007516  5000               	movf	btemp,w
  1306  007518  5C02               	subwf	btemp+2,w
  1307  00751A                     u825:
  1308  00751A  D06D               	goto	u945
  1309                           ;adc.c: 327: else if(sys.uav == 0)ua_err = 4;
  1310                           ;adc.c: 328: }
  1311                           ;adc.c: 329: else if(ua_err == 3)
  1312  00751C                     l113:
  1313  00751C  CE87  FFE8         	movff	_ua_err,wreg
  1314  007520  0A03               	xorlw	3
  1315  007522  A4D8               	btfss	status,2,c
  1316  007524  D070               	goto	l124
  1317                           ;adc.c: 330: {
  1318  007526  C112  F000         	movff	_sys,btemp
  1319  00752A  C113  F001         	movff	_sys+1,btemp+1
  1320  00752E  EE01  F04C         	lfsr	0,_sys+58
  1321  007532  CFEE F002          	movff	postinc0,btemp+2
  1322  007536  CFED F003          	movff	postdec0,btemp+3
  1323  00753A  5001               	movf	btemp+1,w
  1324  00753C  5C03               	subwf	btemp+3,w
  1325  00753E  E102               	bnz	u875
  1326  007540  5000               	movf	btemp,w
  1327  007542  5C02               	subwf	btemp+2,w
  1328  007544                     u875:
  1329  007544  A0D8               	btfss	status,0,c
  1330  007546  D075               	goto	L24
  1331                           ;adc.c: 332: else if((sys.uav <= sys.v1-2)&&(sys
      +                          .uav > sys.v2))ua_err = 2;
  1332  007548  C112  F000         	movff	_sys,btemp
  1333  00754C  C113  F001         	movff	_sys+1,btemp+1
  1334  007550  EE01  F04C         	lfsr	0,_sys+58
  1335  007554  CFEE F002          	movff	postinc0,btemp+2
  1336  007558  CFED F003          	movff	postdec0,btemp+3
  1337  00755C  0EFE               	movlw	254
  1338  00755E  2602               	addwf	btemp+2,f
  1339  007560  0EFF               	movlw	255
  1340  007562  2203               	addwfc	btemp+3,f
  1341  007564  5001               	movf	btemp+1,w
  1342  007566  5C03               	subwf	btemp+3,w
  1343  007568  E102               	bnz	u885
  1344  00756A  5000               	movf	btemp,w
  1345  00756C  5C02               	subwf	btemp+2,w
  1346  00756E                     u885:
  1347  00756E  C112  F000         	movff	_sys,btemp
  1348  007572  A0D8               	btfss	status,0,c
  1349  007574  D011               	goto	L77
  1350  007576  C113  F001         	movff	_sys+1,btemp+1
  1351  00757A  EE01  F04E         	lfsr	0,_sys+60
  1352  00757E  CFEE F002          	movff	postinc0,btemp+2
  1353  007582  CFED F003          	movff	postdec0,btemp+3
  1354  007586  5001               	movf	btemp+1,w
  1355  007588  5C03               	subwf	btemp+3,w
  1356  00758A  E102               	bnz	u895
  1357  00758C  5000               	movf	btemp,w
  1358  00758E  5C02               	subwf	btemp+2,w
  1359  007590                     u895:
  1360  007590  A0D8               	btfss	status,0,c
  1361  007592  D0EA               	goto	L27
  1362                           ;adc.c: 333: else if((sys.uav <= sys.v2)&&(sys.u
      +                          av > sys.v3))ua_err = 1;
  1363  007594  C112  F000         	movff	_sys,btemp
  1364  007598                     L77:
  1365  007598  C113  F001         	movff	_sys+1,btemp+1
  1366  00759C  EE01  F04E         	lfsr	0,_sys+60
  1367  0075A0  CFEE F002          	movff	postinc0,btemp+2
  1368  0075A4  CFED F003          	movff	postdec0,btemp+3
  1369  0075A8  5001               	movf	btemp+1,w
  1370  0075AA  5C03               	subwf	btemp+3,w
  1371  0075AC  E102               	bnz	u915
  1372  0075AE  5000               	movf	btemp,w
  1373  0075B0  5C02               	subwf	btemp+2,w
  1374  0075B2                     u915:
  1375  0075B2  C112  F000         	movff	_sys,btemp
  1376  0075B6  A0D8               	btfss	status,0,c
  1377  0075B8  D011               	goto	L78
  1378  0075BA  C113  F001         	movff	_sys+1,btemp+1
  1379  0075BE  EE01  F050         	lfsr	0,_sys+62
  1380  0075C2  CFEE F002          	movff	postinc0,btemp+2
  1381  0075C6  CFED F003          	movff	postdec0,btemp+3
  1382  0075CA  5001               	movf	btemp+1,w
  1383  0075CC  5C03               	subwf	btemp+3,w
  1384  0075CE  E102               	bnz	u925
  1385  0075D0  5000               	movf	btemp,w
  1386  0075D2  5C02               	subwf	btemp+2,w
  1387  0075D4                     u925:
  1388  0075D4  A0D8               	btfss	status,0,c
  1389  0075D6  D0EC               	goto	L28
  1390                           ;adc.c: 334: else if((sys.uav <= sys.v3)&&(sys.u
      +                          av>0))ua_err = 0;
  1391  0075D8  C112  F000         	movff	_sys,btemp
  1392  0075DC                     L78:
  1393  0075DC  C113  F001         	movff	_sys+1,btemp+1
  1394  0075E0  EE01  F050         	lfsr	0,_sys+62
  1395  0075E4  CFEE F002          	movff	postinc0,btemp+2
  1396  0075E8  CFED F003          	movff	postdec0,btemp+3
  1397  0075EC  5001               	movf	btemp+1,w
  1398  0075EE  5C03               	subwf	btemp+3,w
  1399  0075F0  E102               	bnz	u945
  1400  0075F2  5000               	movf	btemp,w
  1401  0075F4  5C02               	subwf	btemp+2,w
  1402  0075F6                     u945:
  1403  0075F6  A0D8               	btfss	status,0,c
  1404  0075F8  D0F7               	goto	l153
  1405  0075FA  0101               	movlb	_sys shr (0+8)
  1406  0075FC  5112               	movf	_sys& (0+255),w,b
  1407  0075FE  1113               	iorwf	(_sys+1)& (0+255),w,b
  1408  007600  A4D8               	btfss	status,2,c
  1409  007602  D077               	goto	u1080
  1410                           ;adc.c: 335: else if(sys.uav == 0)ua_err = 4;
  1411  007604  D0F1               	goto	l153
  1412                           ;adc.c: 336: }
  1413                           ;adc.c: 337: else if(ua_err == 2)
  1414  007606                     l124:
  1415  007606  CE87  FFE8         	movff	_ua_err,wreg
  1416  00760A  0A02               	xorlw	2
  1417  00760C  A4D8               	btfss	status,2,c
  1418  00760E  D074               	goto	l135
  1419                           ;adc.c: 338: {
  1420  007610  C112  F000         	movff	_sys,btemp
  1421  007614  C113  F001         	movff	_sys+1,btemp+1
  1422  007618  EE01  F04C         	lfsr	0,_sys+58
  1423  00761C  CFEE F002          	movff	postinc0,btemp+2
  1424  007620  CFED F003          	movff	postdec0,btemp+3
  1425  007624  5001               	movf	btemp+1,w
  1426  007626  5C03               	subwf	btemp+3,w
  1427  007628  E102               	bnz	u995
  1428  00762A  5000               	movf	btemp,w
  1429  00762C  5C02               	subwf	btemp+2,w
  1430  00762E                     u995:
  1431  00762E  B0D8               	btfsc	status,0,c
  1432  007630  D002               	goto	l136
  1433  007632                     L24:
  1434  007632  0E03               	movlw	3
  1435  007634  D0DF               	goto	L15
  1436                           ;adc.c: 340: else if((sys.uav <= sys.v1)&&(sys.u
      +                          av > sys.v2))ua_err = 2;
  1437  007636                     l136:
  1438  007636  C112  F000         	movff	_sys,btemp
  1439  00763A  C113  F001         	movff	_sys+1,btemp+1
  1440  00763E  EE01  F04C         	lfsr	0,_sys+58
  1441  007642  CFEE F002          	movff	postinc0,btemp+2
  1442  007646  CFED F003          	movff	postdec0,btemp+3
  1443  00764A  5001               	movf	btemp+1,w
  1444  00764C  5C03               	subwf	btemp+3,w
  1445  00764E  E102               	bnz	u1005
  1446  007650  5000               	movf	btemp,w
  1447  007652  5C02               	subwf	btemp+2,w
  1448  007654                     u1005:
  1449  007654  C112  F000         	movff	_sys,btemp
  1450  007658  A0D8               	btfss	status,0,c
  1451  00765A  D011               	goto	L79
  1452  00765C  C113  F001         	movff	_sys+1,btemp+1
  1453  007660  EE01  F04E         	lfsr	0,_sys+60
  1454  007664  CFEE F002          	movff	postinc0,btemp+2
  1455  007668  CFED F003          	movff	postdec0,btemp+3
  1456  00766C  5001               	movf	btemp+1,w
  1457  00766E  5C03               	subwf	btemp+3,w
  1458  007670  E102               	bnz	u1015
  1459  007672  5000               	movf	btemp,w
  1460  007674  5C02               	subwf	btemp+2,w
  1461  007676                     u1015:
  1462  007676  A0D8               	btfss	status,0,c
  1463  007678  D077               	goto	L27
  1464                           ;adc.c: 341: else if((sys.uav <= sys.v2-2)&&(sys
      +                          .uav > sys.v3))ua_err = 1;
  1465  00767A  C112  F000         	movff	_sys,btemp
  1466  00767E                     L79:
  1467  00767E  C113  F001         	movff	_sys+1,btemp+1
  1468  007682  EE01  F04E         	lfsr	0,_sys+60
  1469  007686  CFEE F002          	movff	postinc0,btemp+2
  1470  00768A  CFED F003          	movff	postdec0,btemp+3
  1471  00768E  0EFE               	movlw	254
  1472  007690  2602               	addwf	btemp+2,f
  1473  007692  0EFF               	movlw	255
  1474  007694  2203               	addwfc	btemp+3,f
  1475  007696  5001               	movf	btemp+1,w
  1476  007698  5C03               	subwf	btemp+3,w
  1477  00769A  E102               	bnz	u1035
  1478  00769C  5000               	movf	btemp,w
  1479  00769E  5C02               	subwf	btemp+2,w
  1480  0076A0                     u1035:
  1481  0076A0  C112  F000         	movff	_sys,btemp
  1482  0076A4  A0D8               	btfss	status,0,c
  1483  0076A6  D011               	goto	L80
  1484  0076A8  C113  F001         	movff	_sys+1,btemp+1
  1485  0076AC  EE01  F050         	lfsr	0,_sys+62
  1486  0076B0  CFEE F002          	movff	postinc0,btemp+2
  1487  0076B4  CFED F003          	movff	postdec0,btemp+3
  1488  0076B8  5001               	movf	btemp+1,w
  1489  0076BA  5C03               	subwf	btemp+3,w
  1490  0076BC  E102               	bnz	u1045
  1491  0076BE  5000               	movf	btemp,w
  1492  0076C0  5C02               	subwf	btemp+2,w
  1493  0076C2                     u1045:
  1494  0076C2  A0D8               	btfss	status,0,c
  1495  0076C4  D075               	goto	L28
  1496                           ;adc.c: 342: else if((sys.uav <= sys.v3)&&(sys.u
      +                          av>0))ua_err = 0;
  1497  0076C6  C112  F000         	movff	_sys,btemp
  1498  0076CA                     L80:
  1499  0076CA  C113  F001         	movff	_sys+1,btemp+1
  1500  0076CE  EE01  F050         	lfsr	0,_sys+62
  1501  0076D2  CFEE F002          	movff	postinc0,btemp+2
  1502  0076D6  CFED F003          	movff	postdec0,btemp+3
  1503  0076DA  5001               	movf	btemp+1,w
  1504  0076DC  5C03               	subwf	btemp+3,w
  1505  0076DE  E102               	bnz	u1065
  1506  0076E0  5000               	movf	btemp,w
  1507  0076E2  5C02               	subwf	btemp+2,w
  1508  0076E4                     u1065:
  1509  0076E4  A0D8               	btfss	status,0,c
  1510  0076E6  D080               	goto	l153
  1511  0076E8  0101               	movlb	_sys shr (0+8)
  1512  0076EA  5112               	movf	_sys& (0+255),w,b
  1513  0076EC  1113               	iorwf	(_sys+1)& (0+255),w,b
  1514  0076EE  B4D8               	btfsc	status,2,c
  1515  0076F0  D07B               	goto	l153
  1516  0076F2                     u1080:
  1517  0076F2  010E               	movlb	_ua_err shr (0+8)
  1518  0076F4  6B87               	clrf	_ua_err& (0+255),b
  1519                           ;adc.c: 343: else if(sys.uav == 0)ua_err = 4;
  1520  0076F6  D080               	goto	l123
  1521                           ;adc.c: 344: }
  1522                           ;adc.c: 345: else if(ua_err == 1)
  1523  0076F8                     l135:
  1524  0076F8  CE87  F000         	movff	_ua_err,btemp
  1525  0076FC  0400               	decf	btemp,w
  1526  0076FE  A4D8               	btfss	status,2,c
  1527  007700  D07B               	goto	l123
  1528                           ;adc.c: 346: {
  1529  007702  C112  F000         	movff	_sys,btemp
  1530  007706  C113  F001         	movff	_sys+1,btemp+1
  1531  00770A  EE01  F04C         	lfsr	0,_sys+58
  1532  00770E  CFEE F002          	movff	postinc0,btemp+2
  1533  007712  CFED F003          	movff	postdec0,btemp+3
  1534  007716  5001               	movf	btemp+1,w
  1535  007718  5C03               	subwf	btemp+3,w
  1536  00771A  E102               	bnz	u1115
  1537  00771C  5000               	movf	btemp,w
  1538  00771E  5C02               	subwf	btemp+2,w
  1539  007720                     u1115:
  1540  007720  A0D8               	btfss	status,0,c
  1541  007722  D787               	goto	L24
  1542                           ;adc.c: 348: else if((sys.uav <= sys.v1)&&(sys.u
      +                          av > sys.v2))ua_err = 2;
  1543  007724  C112  F000         	movff	_sys,btemp
  1544  007728  C113  F001         	movff	_sys+1,btemp+1
  1545  00772C  EE01  F04C         	lfsr	0,_sys+58
  1546  007730  CFEE F002          	movff	postinc0,btemp+2
  1547  007734  CFED F003          	movff	postdec0,btemp+3
  1548  007738  5001               	movf	btemp+1,w
  1549  00773A  5C03               	subwf	btemp+3,w
  1550  00773C  E102               	bnz	u1125
  1551  00773E  5000               	movf	btemp,w
  1552  007740  5C02               	subwf	btemp+2,w
  1553  007742                     u1125:
  1554  007742  C112  F000         	movff	_sys,btemp
  1555  007746  A0D8               	btfss	status,0,c
  1556  007748  D013               	goto	L81
  1557  00774A  C113  F001         	movff	_sys+1,btemp+1
  1558  00774E  EE01  F04E         	lfsr	0,_sys+60
  1559  007752  CFEE F002          	movff	postinc0,btemp+2
  1560  007756  CFED F003          	movff	postdec0,btemp+3
  1561  00775A  5001               	movf	btemp+1,w
  1562  00775C  5C03               	subwf	btemp+3,w
  1563  00775E  E102               	bnz	u1135
  1564  007760  5000               	movf	btemp,w
  1565  007762  5C02               	subwf	btemp+2,w
  1566  007764                     u1135:
  1567  007764  B0D8               	btfsc	status,0,c
  1568  007766  D002               	goto	l149
  1569  007768                     L27:
  1570  007768  0E02               	movlw	2
  1571  00776A  D044               	goto	L15
  1572                           ;adc.c: 349: else if((sys.uav <= sys.v2)&&(sys.u
      +                          av > sys.v3))ua_err = 1;
  1573  00776C                     l149:
  1574  00776C  C112  F000         	movff	_sys,btemp
  1575  007770                     L81:
  1576  007770  C113  F001         	movff	_sys+1,btemp+1
  1577  007774  EE01  F04E         	lfsr	0,_sys+60
  1578  007778  CFEE F002          	movff	postinc0,btemp+2
  1579  00777C  CFED F003          	movff	postdec0,btemp+3
  1580  007780  5001               	movf	btemp+1,w
  1581  007782  5C03               	subwf	btemp+3,w
  1582  007784  E102               	bnz	u1155
  1583  007786  5000               	movf	btemp,w
  1584  007788  5C02               	subwf	btemp+2,w
  1585  00778A                     u1155:
  1586  00778A  C112  F000         	movff	_sys,btemp
  1587  00778E  A0D8               	btfss	status,0,c
  1588  007790  D013               	goto	L82
  1589  007792  C113  F001         	movff	_sys+1,btemp+1
  1590  007796  EE01  F050         	lfsr	0,_sys+62
  1591  00779A  CFEE F002          	movff	postinc0,btemp+2
  1592  00779E  CFED F003          	movff	postdec0,btemp+3
  1593  0077A2  5001               	movf	btemp+1,w
  1594  0077A4  5C03               	subwf	btemp+3,w
  1595  0077A6  E102               	bnz	u1165
  1596  0077A8  5000               	movf	btemp,w
  1597  0077AA  5C02               	subwf	btemp+2,w
  1598  0077AC                     u1165:
  1599  0077AC  B0D8               	btfsc	status,0,c
  1600  0077AE  D002               	goto	l151
  1601  0077B0                     L28:
  1602  0077B0  0E01               	movlw	1
  1603  0077B2  D020               	goto	L15
  1604                           ;adc.c: 350: else if((sys.uav <= sys.v3-2)&&(sys
      +                          .uav>0))ua_err = 0;
  1605  0077B4                     l151:
  1606  0077B4  C112  F000         	movff	_sys,btemp
  1607  0077B8                     L82:
  1608  0077B8  C113  F001         	movff	_sys+1,btemp+1
  1609  0077BC  EE01  F050         	lfsr	0,_sys+62
  1610  0077C0  CFEE F002          	movff	postinc0,btemp+2
  1611  0077C4  CFED F003          	movff	postdec0,btemp+3
  1612  0077C8  0EFE               	movlw	254
  1613  0077CA  2602               	addwf	btemp+2,f
  1614  0077CC  0EFF               	movlw	255
  1615  0077CE  2203               	addwfc	btemp+3,f
  1616  0077D0  5001               	movf	btemp+1,w
  1617  0077D2  5C03               	subwf	btemp+3,w
  1618  0077D4  E102               	bnz	u1185
  1619  0077D6  5000               	movf	btemp,w
  1620  0077D8  5C02               	subwf	btemp+2,w
  1621  0077DA                     u1185:
  1622  0077DA  A0D8               	btfss	status,0,c
  1623  0077DC  D005               	goto	l153
  1624  0077DE  0101               	movlb	_sys shr (0+8)
  1625  0077E0  5112               	movf	_sys& (0+255),w,b
  1626  0077E2  1113               	iorwf	(_sys+1)& (0+255),w,b
  1627  0077E4  A4D8               	btfss	status,2,c
  1628  0077E6  D785               	goto	u1080
  1629                           ;adc.c: 351: else if(sys.uav == 0)ua_err = 4;
  1630  0077E8                     l153:
  1631  0077E8  0101               	movlb	_sys shr (0+8)
  1632  0077EA  5112               	movf	_sys& (0+255),w,b
  1633  0077EC  1113               	iorwf	(_sys+1)& (0+255),w,b
  1634  0077EE  A4D8               	btfss	status,2,c
  1635  0077F0  D003               	goto	l123
  1636  0077F2  0E04               	movlw	4
  1637  0077F4                     L15:
  1638  0077F4  CFE8 FE87          	movff	wreg,_ua_err
  1639                           ;adc.c: 353: }
  1640                           ;adc.c: 355: adm.channle = 1;
  1641  0077F8                     l123:
  1642  0077F8  0E01               	movlw	1
  1643  0077FA  EFAC  F042         	goto	L11
  1644                           ;adc.c: 356: break;
  1645  0077FE                     l156:
  1646                           ;adc.c: 358: case 1:
  1647                           ;adc.c: 361: temp = temp*10/33;
  1648  0077FE  0E0A               	movlw	10
  1649  007800  6E04               	movwf	btemp+4
  1650  007802  6A05               	clrf	btemp+5
  1651  007804  6A06               	clrf	btemp+6
  1652  007806  6A07               	clrf	btemp+7
  1653  007808  C039  F000         	movff	?a_cal_channle_val+16,btemp
  1654  00780C  C03A  F001         	movff	?a_cal_channle_val+17,btemp+1
  1655  007810  C03B  F002         	movff	?a_cal_channle_val+18,btemp+2
  1656  007814  C03C  F003         	movff	?a_cal_channle_val+19,btemp+3
  1657  007818  ECAF  F050         	call	llmul
  1658  00781C  0E21               	movlw	33
  1659  00781E  6E04               	movwf	btemp+4
  1660  007820  6A05               	clrf	btemp+5
  1661  007822  6A06               	clrf	btemp+6
  1662  007824  6A07               	clrf	btemp+7
  1663  007826  EC1D  F007         	call	lldiv
  1664  00782A  C000  F039         	movff	btemp,?a_cal_channle_val+16
  1665  00782E  C001  F03A         	movff	btemp+1,?a_cal_channle_val+17
  1666  007832  C002  F03B         	movff	btemp+2,?a_cal_channle_val+18
  1667  007836  C003  F03C         	movff	btemp+3,?a_cal_channle_val+19
  1668                           ;adc.c: 362: sys.ubv = temp;
  1669  00783A  C039  F114         	movff	?a_cal_channle_val+16,_sys+2
  1670  00783E  C03A  F115         	movff	?a_cal_channle_val+17,_sys+3
  1671                           ;adc.c: 370: if((ub_err== 4)||(ub_err == 0))
  1672  007842  CE88  FFE8         	movff	_ub_err,wreg
  1673  007846  0A04               	xorlw	4
  1674  007848  B4D8               	btfsc	status,2,c
  1675  00784A  D004               	goto	u1240
  1676  00784C  010E               	movlb	_ub_err shr (0+8)
  1677  00784E  5388               	movf	_ub_err& (0+255),f,b
  1678  007850  A4D8               	btfss	status,2,c
  1679  007852  D04D               	goto	l157
  1680  007854                     u1240:
  1681                           ;adc.c: 371: {
  1682  007854  EE11  F014         	lfsr	1,_sys+2
  1683  007858  EE01  F04C         	lfsr	0,_sys+58
  1684  00785C  52EE               	movf	postinc0,f,c
  1685  00785E  52E6               	movf	postinc1,f,c
  1686  007860  50E5               	movf	postdec1,w,c
  1687  007862  5CED               	subwf	postdec0,w,c
  1688  007864  E102               	bnz	u1255
  1689  007866  50E7               	movf	indf1,w,c
  1690  007868  5CEF               	subwf	indf0,w,c
  1691  00786A                     u1255:
  1692  00786A  A0D8               	btfss	status,0,c
  1693  00786C  D0B5               	goto	L32
  1694                           ;adc.c: 373: else if((sys.ubv <= sys.v1)&&(sys.u
      +                          bv > sys.v2))ub_err = 2;
  1695  00786E  EE11  F014         	lfsr	1,_sys+2
  1696  007872  EE01  F04C         	lfsr	0,_sys+58
  1697  007876  52EE               	movf	postinc0,f,c
  1698  007878  52E6               	movf	postinc1,f,c
  1699  00787A  50E5               	movf	postdec1,w,c
  1700  00787C  5CED               	subwf	postdec0,w,c
  1701  00787E  E102               	bnz	u1265
  1702  007880  50E7               	movf	indf1,w,c
  1703  007882  5CEF               	subwf	indf0,w,c
  1704  007884                     u1265:
  1705  007884  A0D8               	btfss	status,0,c
  1706  007886  D00D               	goto	l160
  1707  007888  EE11  F014         	lfsr	1,_sys+2
  1708  00788C  EE01  F04E         	lfsr	0,_sys+60
  1709  007890  52EE               	movf	postinc0,f,c
  1710  007892  52E6               	movf	postinc1,f,c
  1711  007894  50E5               	movf	postdec1,w,c
  1712  007896  5CED               	subwf	postdec0,w,c
  1713  007898  E102               	bnz	u1275
  1714  00789A  50E7               	movf	indf1,w,c
  1715  00789C  5CEF               	subwf	indf0,w,c
  1716  00789E                     u1275:
  1717  00789E  A0D8               	btfss	status,0,c
  1718  0078A0  D11C               	goto	L35
  1719                           ;adc.c: 374: else if((sys.ubv <= sys.v2)&&(sys.u
      +                          bv > sys.v3))ub_err = 1;
  1720  0078A2                     l160:
  1721  0078A2  EE11  F014         	lfsr	1,_sys+2
  1722  0078A6  EE01  F04E         	lfsr	0,_sys+60
  1723  0078AA  52EE               	movf	postinc0,f,c
  1724  0078AC  52E6               	movf	postinc1,f,c
  1725  0078AE  50E5               	movf	postdec1,w,c
  1726  0078B0  5CED               	subwf	postdec0,w,c
  1727  0078B2  E102               	bnz	u1295
  1728  0078B4  50E7               	movf	indf1,w,c
  1729  0078B6  5CEF               	subwf	indf0,w,c
  1730  0078B8                     u1295:
  1731  0078B8  A0D8               	btfss	status,0,c
  1732  0078BA  D00D               	goto	l162
  1733  0078BC  EE11  F014         	lfsr	1,_sys+2
  1734  0078C0  EE01  F050         	lfsr	0,_sys+62
  1735  0078C4  52EE               	movf	postinc0,f,c
  1736  0078C6  52E6               	movf	postinc1,f,c
  1737  0078C8  50E5               	movf	postdec1,w,c
  1738  0078CA  5CED               	subwf	postdec0,w,c
  1739  0078CC  E102               	bnz	u1305
  1740  0078CE  50E7               	movf	indf1,w,c
  1741  0078D0  5CEF               	subwf	indf0,w,c
  1742  0078D2                     u1305:
  1743  0078D2  A0D8               	btfss	status,0,c
  1744  0078D4  D11E               	goto	L36
  1745                           ;adc.c: 375: else if((sys.ubv <= sys.v3)&&(sys.u
      +                          bv > 0))ub_err = 0;
  1746  0078D6                     l162:
  1747  0078D6  EE11  F014         	lfsr	1,_sys+2
  1748  0078DA  EE01  F050         	lfsr	0,_sys+62
  1749  0078DE  52EE               	movf	postinc0,f,c
  1750  0078E0  52E6               	movf	postinc1,f,c
  1751  0078E2  50E5               	movf	postdec1,w,c
  1752  0078E4  5CED               	subwf	postdec0,w,c
  1753  0078E6  E102               	bnz	u1325
  1754  0078E8  50E7               	movf	indf1,w,c
  1755  0078EA  5CEF               	subwf	indf0,w,c
  1756  0078EC                     u1325:
  1757  0078EC  D05B               	goto	u1445
  1758                           ;adc.c: 376: else if(sys.ubv == 0)ub_err = 4;
  1759                           ;adc.c: 377: }
  1760                           ;adc.c: 378: else if(ub_err == 3)
  1761  0078EE                     l157:
  1762  0078EE  CE88  FFE8         	movff	_ub_err,wreg
  1763  0078F2  0A03               	xorlw	3
  1764  0078F4  A4D8               	btfss	status,2,c
  1765  0078F6  D05E               	goto	l168
  1766                           ;adc.c: 379: {
  1767  0078F8  EE11  F014         	lfsr	1,_sys+2
  1768  0078FC  EE01  F04C         	lfsr	0,_sys+58
  1769  007900  52EE               	movf	postinc0,f,c
  1770  007902  52E6               	movf	postinc1,f,c
  1771  007904  50E5               	movf	postdec1,w,c
  1772  007906  5CED               	subwf	postdec0,w,c
  1773  007908  E102               	bnz	u1375
  1774  00790A  50E7               	movf	indf1,w,c
  1775  00790C  5CEF               	subwf	indf0,w,c
  1776  00790E                     u1375:
  1777  00790E  A0D8               	btfss	status,0,c
  1778  007910  D063               	goto	L32
  1779                           ;adc.c: 381: else if((sys.ubv <= sys.v1-2)&&(sys
      +                          .ubv > sys.v2))ub_err = 2;
  1780  007912  EE01  F014         	lfsr	0,_sys+2
  1781  007916  CFEE F000          	movff	postinc0,btemp
  1782  00791A  CFED F001          	movff	postdec0,btemp+1
  1783  00791E  EE01  F04C         	lfsr	0,_sys+58
  1784  007922  CFEE F002          	movff	postinc0,btemp+2
  1785  007926  CFED F003          	movff	postdec0,btemp+3
  1786  00792A  0EFE               	movlw	254
  1787  00792C  2602               	addwf	btemp+2,f
  1788  00792E  0EFF               	movlw	255
  1789  007930  2203               	addwfc	btemp+3,f
  1790  007932  5001               	movf	btemp+1,w
  1791  007934  5C03               	subwf	btemp+3,w
  1792  007936  E102               	bnz	u1385
  1793  007938  5000               	movf	btemp,w
  1794  00793A  5C02               	subwf	btemp+2,w
  1795  00793C                     u1385:
  1796  00793C  A0D8               	btfss	status,0,c
  1797  00793E  D00D               	goto	l171
  1798  007940  EE11  F014         	lfsr	1,_sys+2
  1799  007944  EE01  F04E         	lfsr	0,_sys+60
  1800  007948  52EE               	movf	postinc0,f,c
  1801  00794A  52E6               	movf	postinc1,f,c
  1802  00794C  50E5               	movf	postdec1,w,c
  1803  00794E  5CED               	subwf	postdec0,w,c
  1804  007950  E102               	bnz	u1395
  1805  007952  50E7               	movf	indf1,w,c
  1806  007954  5CEF               	subwf	indf0,w,c
  1807  007956                     u1395:
  1808  007956  A0D8               	btfss	status,0,c
  1809  007958  D0C0               	goto	L35
  1810                           ;adc.c: 382: else if((sys.ubv <= sys.v2)&&(sys.u
      +                          bv > sys.v3))ub_err = 1;
  1811  00795A                     l171:
  1812  00795A  EE11  F014         	lfsr	1,_sys+2
  1813  00795E  EE01  F04E         	lfsr	0,_sys+60
  1814  007962  52EE               	movf	postinc0,f,c
  1815  007964  52E6               	movf	postinc1,f,c
  1816  007966  50E5               	movf	postdec1,w,c
  1817  007968  5CED               	subwf	postdec0,w,c
  1818  00796A  E102               	bnz	u1415
  1819  00796C  50E7               	movf	indf1,w,c
  1820  00796E  5CEF               	subwf	indf0,w,c
  1821  007970                     u1415:
  1822  007970  A0D8               	btfss	status,0,c
  1823  007972  D00D               	goto	l173
  1824  007974  EE11  F014         	lfsr	1,_sys+2
  1825  007978  EE01  F050         	lfsr	0,_sys+62
  1826  00797C  52EE               	movf	postinc0,f,c
  1827  00797E  52E6               	movf	postinc1,f,c
  1828  007980  50E5               	movf	postdec1,w,c
  1829  007982  5CED               	subwf	postdec0,w,c
  1830  007984  E102               	bnz	u1425
  1831  007986  50E7               	movf	indf1,w,c
  1832  007988  5CEF               	subwf	indf0,w,c
  1833  00798A                     u1425:
  1834  00798A  A0D8               	btfss	status,0,c
  1835  00798C  D0C2               	goto	L36
  1836                           ;adc.c: 383: else if((sys.ubv <= sys.v3)&&(sys.u
      +                          bv>0))ub_err = 0;
  1837  00798E                     l173:
  1838  00798E  EE11  F014         	lfsr	1,_sys+2
  1839  007992  EE01  F050         	lfsr	0,_sys+62
  1840  007996  52EE               	movf	postinc0,f,c
  1841  007998  52E6               	movf	postinc1,f,c
  1842  00799A  50E5               	movf	postdec1,w,c
  1843  00799C  5CED               	subwf	postdec0,w,c
  1844  00799E  E102               	bnz	u1445
  1845  0079A0  50E7               	movf	indf1,w,c
  1846  0079A2  5CEF               	subwf	indf0,w,c
  1847  0079A4                     u1445:
  1848  0079A4  A0D8               	btfss	status,0,c
  1849  0079A6  D0D3               	goto	l197
  1850  0079A8  0101               	movlb	(_sys+2) shr (0+8)
  1851  0079AA  5114               	movf	(_sys+2)& (0+255),w,b
  1852  0079AC  1115               	iorwf	(_sys+3)& (0+255),w,b
  1853  0079AE  A4D8               	btfss	status,2,c
  1854  0079B0  D065               	goto	u1580
  1855                           ;adc.c: 384: else if(sys.ubv == 0)ub_err = 4;
  1856  0079B2  D0CD               	goto	l197
  1857                           ;adc.c: 385: }
  1858                           ;adc.c: 386: else if(ub_err == 2)
  1859  0079B4                     l168:
  1860  0079B4  CE88  FFE8         	movff	_ub_err,wreg
  1861  0079B8  0A02               	xorlw	2
  1862  0079BA  A4D8               	btfss	status,2,c
  1863  0079BC  D062               	goto	l179
  1864                           ;adc.c: 387: {
  1865  0079BE  EE11  F014         	lfsr	1,_sys+2
  1866  0079C2  EE01  F04C         	lfsr	0,_sys+58
  1867  0079C6  52EE               	movf	postinc0,f,c
  1868  0079C8  52E6               	movf	postinc1,f,c
  1869  0079CA  50E5               	movf	postdec1,w,c
  1870  0079CC  5CED               	subwf	postdec0,w,c
  1871  0079CE  E102               	bnz	u1495
  1872  0079D0  50E7               	movf	indf1,w,c
  1873  0079D2  5CEF               	subwf	indf0,w,c
  1874  0079D4                     u1495:
  1875  0079D4  B0D8               	btfsc	status,0,c
  1876  0079D6  D002               	goto	l180
  1877  0079D8                     L32:
  1878  0079D8  0E03               	movlw	3
  1879  0079DA  D0BF               	goto	L16
  1880                           ;adc.c: 389: else if((sys.ubv <= sys.v1)&&(sys.u
      +                          bv > sys.v2))ub_err = 2;
  1881  0079DC                     l180:
  1882  0079DC  EE11  F014         	lfsr	1,_sys+2
  1883  0079E0  EE01  F04C         	lfsr	0,_sys+58
  1884  0079E4  52EE               	movf	postinc0,f,c
  1885  0079E6  52E6               	movf	postinc1,f,c
  1886  0079E8  50E5               	movf	postdec1,w,c
  1887  0079EA  5CED               	subwf	postdec0,w,c
  1888  0079EC  E102               	bnz	u1505
  1889  0079EE  50E7               	movf	indf1,w,c
  1890  0079F0  5CEF               	subwf	indf0,w,c
  1891  0079F2                     u1505:
  1892  0079F2  A0D8               	btfss	status,0,c
  1893  0079F4  D00D               	goto	l182
  1894  0079F6  EE11  F014         	lfsr	1,_sys+2
  1895  0079FA  EE01  F04E         	lfsr	0,_sys+60
  1896  0079FE  52EE               	movf	postinc0,f,c
  1897  007A00  52E6               	movf	postinc1,f,c
  1898  007A02  50E5               	movf	postdec1,w,c
  1899  007A04  5CED               	subwf	postdec0,w,c
  1900  007A06  E102               	bnz	u1515
  1901  007A08  50E7               	movf	indf1,w,c
  1902  007A0A  5CEF               	subwf	indf0,w,c
  1903  007A0C                     u1515:
  1904  007A0C  A0D8               	btfss	status,0,c
  1905  007A0E  D065               	goto	L35
  1906                           ;adc.c: 390: else if((sys.ubv <= sys.v2-2)&&(sys
      +                          .ubv > sys.v3))ub_err = 1;
  1907  007A10                     l182:
  1908  007A10  EE01  F014         	lfsr	0,_sys+2
  1909  007A14  CFEE F000          	movff	postinc0,btemp
  1910  007A18  CFED F001          	movff	postdec0,btemp+1
  1911  007A1C  EE01  F04E         	lfsr	0,_sys+60
  1912  007A20  CFEE F002          	movff	postinc0,btemp+2
  1913  007A24  CFED F003          	movff	postdec0,btemp+3
  1914  007A28  0EFE               	movlw	254
  1915  007A2A  2602               	addwf	btemp+2,f
  1916  007A2C  0EFF               	movlw	255
  1917  007A2E  2203               	addwfc	btemp+3,f
  1918  007A30  5001               	movf	btemp+1,w
  1919  007A32  5C03               	subwf	btemp+3,w
  1920  007A34  E102               	bnz	u1535
  1921  007A36  5000               	movf	btemp,w
  1922  007A38  5C02               	subwf	btemp+2,w
  1923  007A3A                     u1535:
  1924  007A3A  A0D8               	btfss	status,0,c
  1925  007A3C  D00D               	goto	l184
  1926  007A3E  EE11  F014         	lfsr	1,_sys+2
  1927  007A42  EE01  F050         	lfsr	0,_sys+62
  1928  007A46  52EE               	movf	postinc0,f,c
  1929  007A48  52E6               	movf	postinc1,f,c
  1930  007A4A  50E5               	movf	postdec1,w,c
  1931  007A4C  5CED               	subwf	postdec0,w,c
  1932  007A4E  E102               	bnz	u1545
  1933  007A50  50E7               	movf	indf1,w,c
  1934  007A52  5CEF               	subwf	indf0,w,c
  1935  007A54                     u1545:
  1936  007A54  A0D8               	btfss	status,0,c
  1937  007A56  D05D               	goto	L36
  1938                           ;adc.c: 391: else if((sys.ubv <= sys.v3)&&(sys.u
      +                          bv>0))ub_err = 0;
  1939  007A58                     l184:
  1940  007A58  EE11  F014         	lfsr	1,_sys+2
  1941  007A5C  EE01  F050         	lfsr	0,_sys+62
  1942  007A60  52EE               	movf	postinc0,f,c
  1943  007A62  52E6               	movf	postinc1,f,c
  1944  007A64  50E5               	movf	postdec1,w,c
  1945  007A66  5CED               	subwf	postdec0,w,c
  1946  007A68  E102               	bnz	u1565
  1947  007A6A  50E7               	movf	indf1,w,c
  1948  007A6C  5CEF               	subwf	indf0,w,c
  1949  007A6E                     u1565:
  1950  007A6E  A0D8               	btfss	status,0,c
  1951  007A70  D06E               	goto	l197
  1952  007A72  0101               	movlb	(_sys+2) shr (0+8)
  1953  007A74  5114               	movf	(_sys+2)& (0+255),w,b
  1954  007A76  1115               	iorwf	(_sys+3)& (0+255),w,b
  1955  007A78  B4D8               	btfsc	status,2,c
  1956  007A7A  D069               	goto	l197
  1957  007A7C                     u1580:
  1958  007A7C  010E               	movlb	_ub_err shr (0+8)
  1959  007A7E  6B88               	clrf	_ub_err& (0+255),b
  1960                           ;adc.c: 392: else if(sys.ubv == 0)ub_err = 4;
  1961  007A80  D06E               	goto	l167
  1962                           ;adc.c: 393: }
  1963                           ;adc.c: 394: else if(ub_err == 1)
  1964  007A82                     l179:
  1965  007A82  CE88  F000         	movff	_ub_err,btemp
  1966  007A86  0400               	decf	btemp,w
  1967  007A88  A4D8               	btfss	status,2,c
  1968  007A8A  D069               	goto	l167
  1969                           ;adc.c: 395: {
  1970  007A8C  EE11  F014         	lfsr	1,_sys+2
  1971  007A90  EE01  F04C         	lfsr	0,_sys+58
  1972  007A94  52EE               	movf	postinc0,f,c
  1973  007A96  52E6               	movf	postinc1,f,c
  1974  007A98  50E5               	movf	postdec1,w,c
  1975  007A9A  5CED               	subwf	postdec0,w,c
  1976  007A9C  E102               	bnz	u1615
  1977  007A9E  50E7               	movf	indf1,w,c
  1978  007AA0  5CEF               	subwf	indf0,w,c
  1979  007AA2                     u1615:
  1980  007AA2  A0D8               	btfss	status,0,c
  1981  007AA4  D799               	goto	L32
  1982                           ;adc.c: 397: else if((sys.ubv <= sys.v1)&&(sys.u
      +                          bv > sys.v2))ub_err = 2;
  1983  007AA6  EE11  F014         	lfsr	1,_sys+2
  1984  007AAA  EE01  F04C         	lfsr	0,_sys+58
  1985  007AAE  52EE               	movf	postinc0,f,c
  1986  007AB0  52E6               	movf	postinc1,f,c
  1987  007AB2  50E5               	movf	postdec1,w,c
  1988  007AB4  5CED               	subwf	postdec0,w,c
  1989  007AB6  E102               	bnz	u1625
  1990  007AB8  50E7               	movf	indf1,w,c
  1991  007ABA  5CEF               	subwf	indf0,w,c
  1992  007ABC                     u1625:
  1993  007ABC  A0D8               	btfss	status,0,c
  1994  007ABE  D00F               	goto	l193
  1995  007AC0  EE11  F014         	lfsr	1,_sys+2
  1996  007AC4  EE01  F04E         	lfsr	0,_sys+60
  1997  007AC8  52EE               	movf	postinc0,f,c
  1998  007ACA  52E6               	movf	postinc1,f,c
  1999  007ACC  50E5               	movf	postdec1,w,c
  2000  007ACE  5CED               	subwf	postdec0,w,c
  2001  007AD0  E102               	bnz	u1635
  2002  007AD2  50E7               	movf	indf1,w,c
  2003  007AD4  5CEF               	subwf	indf0,w,c
  2004  007AD6                     u1635:
  2005  007AD6  B0D8               	btfsc	status,0,c
  2006  007AD8  D002               	goto	l193
  2007  007ADA                     L35:
  2008  007ADA  0E02               	movlw	2
  2009  007ADC  D03E               	goto	L16
  2010                           ;adc.c: 398: else if((sys.ubv <= sys.v2)&&(sys.u
      +                          bv > sys.v3))ub_err = 1;
  2011  007ADE                     l193:
  2012  007ADE  EE11  F014         	lfsr	1,_sys+2
  2013  007AE2  EE01  F04E         	lfsr	0,_sys+60
  2014  007AE6  52EE               	movf	postinc0,f,c
  2015  007AE8  52E6               	movf	postinc1,f,c
  2016  007AEA  50E5               	movf	postdec1,w,c
  2017  007AEC  5CED               	subwf	postdec0,w,c
  2018  007AEE  E102               	bnz	u1655
  2019  007AF0  50E7               	movf	indf1,w,c
  2020  007AF2  5CEF               	subwf	indf0,w,c
  2021  007AF4                     u1655:
  2022  007AF4  A0D8               	btfss	status,0,c
  2023  007AF6  D00F               	goto	l195
  2024  007AF8  EE11  F014         	lfsr	1,_sys+2
  2025  007AFC  EE01  F050         	lfsr	0,_sys+62
  2026  007B00  52EE               	movf	postinc0,f,c
  2027  007B02  52E6               	movf	postinc1,f,c
  2028  007B04  50E5               	movf	postdec1,w,c
  2029  007B06  5CED               	subwf	postdec0,w,c
  2030  007B08  E102               	bnz	u1665
  2031  007B0A  50E7               	movf	indf1,w,c
  2032  007B0C  5CEF               	subwf	indf0,w,c
  2033  007B0E                     u1665:
  2034  007B0E  B0D8               	btfsc	status,0,c
  2035  007B10  D002               	goto	l195
  2036  007B12                     L36:
  2037  007B12  0E01               	movlw	1
  2038  007B14  D022               	goto	L16
  2039                           ;adc.c: 399: else if((sys.ubv <= sys.v3-2)&&(sys
      +                          .ubv>0))ub_err = 0;
  2040  007B16                     l195:
  2041  007B16  EE01  F014         	lfsr	0,_sys+2
  2042  007B1A  CFEE F000          	movff	postinc0,btemp
  2043  007B1E  CFED F001          	movff	postdec0,btemp+1
  2044  007B22  EE01  F050         	lfsr	0,_sys+62
  2045  007B26  CFEE F002          	movff	postinc0,btemp+2
  2046  007B2A  CFED F003          	movff	postdec0,btemp+3
  2047  007B2E  0EFE               	movlw	254
  2048  007B30  2602               	addwf	btemp+2,f
  2049  007B32  0EFF               	movlw	255
  2050  007B34  2203               	addwfc	btemp+3,f
  2051  007B36  5001               	movf	btemp+1,w
  2052  007B38  5C03               	subwf	btemp+3,w
  2053  007B3A  E102               	bnz	u1685
  2054  007B3C  5000               	movf	btemp,w
  2055  007B3E  5C02               	subwf	btemp+2,w
  2056  007B40                     u1685:
  2057  007B40  A0D8               	btfss	status,0,c
  2058  007B42  D005               	goto	l197
  2059  007B44  0101               	movlb	(_sys+2) shr (0+8)
  2060  007B46  5114               	movf	(_sys+2)& (0+255),w,b
  2061  007B48  1115               	iorwf	(_sys+3)& (0+255),w,b
  2062  007B4A  A4D8               	btfss	status,2,c
  2063  007B4C  D797               	goto	u1580
  2064                           ;adc.c: 400: else if(sys.ubv == 0)ub_err = 4;
  2065  007B4E                     l197:
  2066  007B4E  0101               	movlb	(_sys+2) shr (0+8)
  2067  007B50  5114               	movf	(_sys+2)& (0+255),w,b
  2068  007B52  1115               	iorwf	(_sys+3)& (0+255),w,b
  2069  007B54  A4D8               	btfss	status,2,c
  2070  007B56  D003               	goto	l167
  2071  007B58  0E04               	movlw	4
  2072  007B5A                     L16:
  2073  007B5A  CFE8 FE88          	movff	wreg,_ub_err
  2074                           ;adc.c: 402: }
  2075                           ;adc.c: 404: adm.channle = 2;
  2076  007B5E                     l167:
  2077  007B5E  0E02               	movlw	2
  2078  007B60  EFAC  F042         	goto	L11
  2079                           ;adc.c: 405: break;
  2080  007B64                     l200:
  2081                           ;adc.c: 407: case 2:
  2082                           ;adc.c: 408: temp = temp*10/33;
  2083  007B64  0E0A               	movlw	10
  2084  007B66  6E04               	movwf	btemp+4
  2085  007B68  6A05               	clrf	btemp+5
  2086  007B6A  6A06               	clrf	btemp+6
  2087  007B6C  6A07               	clrf	btemp+7
  2088  007B6E  C039  F000         	movff	?a_cal_channle_val+16,btemp
  2089  007B72  C03A  F001         	movff	?a_cal_channle_val+17,btemp+1
  2090  007B76  C03B  F002         	movff	?a_cal_channle_val+18,btemp+2
  2091  007B7A  C03C  F003         	movff	?a_cal_channle_val+19,btemp+3
  2092  007B7E  ECAF  F050         	call	llmul
  2093  007B82  0E21               	movlw	33
  2094  007B84  6E04               	movwf	btemp+4
  2095  007B86  6A05               	clrf	btemp+5
  2096  007B88  6A06               	clrf	btemp+6
  2097  007B8A  6A07               	clrf	btemp+7
  2098  007B8C  EC1D  F007         	call	lldiv
  2099  007B90  C000  F039         	movff	btemp,?a_cal_channle_val+16
  2100  007B94  C001  F03A         	movff	btemp+1,?a_cal_channle_val+17
  2101  007B98  C002  F03B         	movff	btemp+2,?a_cal_channle_val+18
  2102  007B9C  C003  F03C         	movff	btemp+3,?a_cal_channle_val+19
  2103                           ;adc.c: 409: sys.ucv = temp;
  2104  007BA0  C039  F116         	movff	?a_cal_channle_val+16,_sys+4
  2105  007BA4  C03A  F117         	movff	?a_cal_channle_val+17,_sys+5
  2106                           ;adc.c: 418: if((uc_err== 4)||(uc_err == 0))
  2107  007BA8  CE89  FFE8         	movff	_uc_err,wreg
  2108  007BAC  0A04               	xorlw	4
  2109  007BAE  B4D8               	btfsc	status,2,c
  2110  007BB0  D004               	goto	u1740
  2111  007BB2  010E               	movlb	_uc_err shr (0+8)
  2112  007BB4  5389               	movf	_uc_err& (0+255),f,b
  2113  007BB6  A4D8               	btfss	status,2,c
  2114  007BB8  D04D               	goto	l201
  2115  007BBA                     u1740:
  2116                           ;adc.c: 419: {
  2117  007BBA  EE11  F016         	lfsr	1,_sys+4
  2118  007BBE  EE01  F04C         	lfsr	0,_sys+58
  2119  007BC2  52EE               	movf	postinc0,f,c
  2120  007BC4  52E6               	movf	postinc1,f,c
  2121  007BC6  50E5               	movf	postdec1,w,c
  2122  007BC8  5CED               	subwf	postdec0,w,c
  2123  007BCA  E102               	bnz	u1755
  2124  007BCC  50E7               	movf	indf1,w,c
  2125  007BCE  5CEF               	subwf	indf0,w,c
  2126  007BD0                     u1755:
  2127  007BD0  A0D8               	btfss	status,0,c
  2128  007BD2  D0B5               	goto	L40
  2129                           ;adc.c: 421: else if((sys.ucv <= sys.v1)&&(sys.u
      +                          cv > sys.v2))uc_err = 2;
  2130  007BD4  EE11  F016         	lfsr	1,_sys+4
  2131  007BD8  EE01  F04C         	lfsr	0,_sys+58
  2132  007BDC  52EE               	movf	postinc0,f,c
  2133  007BDE  52E6               	movf	postinc1,f,c
  2134  007BE0  50E5               	movf	postdec1,w,c
  2135  007BE2  5CED               	subwf	postdec0,w,c
  2136  007BE4  E102               	bnz	u1765
  2137  007BE6  50E7               	movf	indf1,w,c
  2138  007BE8  5CEF               	subwf	indf0,w,c
  2139  007BEA                     u1765:
  2140  007BEA  A0D8               	btfss	status,0,c
  2141  007BEC  D00D               	goto	l204
  2142  007BEE  EE11  F016         	lfsr	1,_sys+4
  2143  007BF2  EE01  F04E         	lfsr	0,_sys+60
  2144  007BF6  52EE               	movf	postinc0,f,c
  2145  007BF8  52E6               	movf	postinc1,f,c
  2146  007BFA  50E5               	movf	postdec1,w,c
  2147  007BFC  5CED               	subwf	postdec0,w,c
  2148  007BFE  E102               	bnz	u1775
  2149  007C00  50E7               	movf	indf1,w,c
  2150  007C02  5CEF               	subwf	indf0,w,c
  2151  007C04                     u1775:
  2152  007C04  A0D8               	btfss	status,0,c
  2153  007C06  D11C               	goto	L43
  2154                           ;adc.c: 422: else if((sys.ucv <= sys.v2)&&(sys.u
      +                          cv > sys.v3))uc_err = 1;
  2155  007C08                     l204:
  2156  007C08  EE11  F016         	lfsr	1,_sys+4
  2157  007C0C  EE01  F04E         	lfsr	0,_sys+60
  2158  007C10  52EE               	movf	postinc0,f,c
  2159  007C12  52E6               	movf	postinc1,f,c
  2160  007C14  50E5               	movf	postdec1,w,c
  2161  007C16  5CED               	subwf	postdec0,w,c
  2162  007C18  E102               	bnz	u1795
  2163  007C1A  50E7               	movf	indf1,w,c
  2164  007C1C  5CEF               	subwf	indf0,w,c
  2165  007C1E                     u1795:
  2166  007C1E  A0D8               	btfss	status,0,c
  2167  007C20  D00D               	goto	l206
  2168  007C22  EE11  F016         	lfsr	1,_sys+4
  2169  007C26  EE01  F050         	lfsr	0,_sys+62
  2170  007C2A  52EE               	movf	postinc0,f,c
  2171  007C2C  52E6               	movf	postinc1,f,c
  2172  007C2E  50E5               	movf	postdec1,w,c
  2173  007C30  5CED               	subwf	postdec0,w,c
  2174  007C32  E102               	bnz	u1805
  2175  007C34  50E7               	movf	indf1,w,c
  2176  007C36  5CEF               	subwf	indf0,w,c
  2177  007C38                     u1805:
  2178  007C38  A0D8               	btfss	status,0,c
  2179  007C3A  D11E               	goto	L44
  2180                           ;adc.c: 423: else if((sys.ucv <= sys.v3)&&(sys.u
      +                          cv > 0))uc_err = 0;
  2181  007C3C                     l206:
  2182  007C3C  EE11  F016         	lfsr	1,_sys+4
  2183  007C40  EE01  F050         	lfsr	0,_sys+62
  2184  007C44  52EE               	movf	postinc0,f,c
  2185  007C46  52E6               	movf	postinc1,f,c
  2186  007C48  50E5               	movf	postdec1,w,c
  2187  007C4A  5CED               	subwf	postdec0,w,c
  2188  007C4C  E102               	bnz	u1825
  2189  007C4E  50E7               	movf	indf1,w,c
  2190  007C50  5CEF               	subwf	indf0,w,c
  2191  007C52                     u1825:
  2192  007C52  D05B               	goto	u1945
  2193                           ;adc.c: 424: else if(sys.ucv == 0)uc_err = 4;
  2194                           ;adc.c: 425: }
  2195                           ;adc.c: 426: else if(uc_err == 3)
  2196  007C54                     l201:
  2197  007C54  CE89  FFE8         	movff	_uc_err,wreg
  2198  007C58  0A03               	xorlw	3
  2199  007C5A  A4D8               	btfss	status,2,c
  2200  007C5C  D05E               	goto	l212
  2201                           ;adc.c: 427: {
  2202  007C5E  EE11  F016         	lfsr	1,_sys+4
  2203  007C62  EE01  F04C         	lfsr	0,_sys+58
  2204  007C66  52EE               	movf	postinc0,f,c
  2205  007C68  52E6               	movf	postinc1,f,c
  2206  007C6A  50E5               	movf	postdec1,w,c
  2207  007C6C  5CED               	subwf	postdec0,w,c
  2208  007C6E  E102               	bnz	u1875
  2209  007C70  50E7               	movf	indf1,w,c
  2210  007C72  5CEF               	subwf	indf0,w,c
  2211  007C74                     u1875:
  2212  007C74  A0D8               	btfss	status,0,c
  2213  007C76  D063               	goto	L40
  2214                           ;adc.c: 429: else if((sys.ucv <= sys.v1-2)&&(sys
      +                          .ucv > sys.v2))uc_err = 2;
  2215  007C78  EE01  F016         	lfsr	0,_sys+4
  2216  007C7C  CFEE F000          	movff	postinc0,btemp
  2217  007C80  CFED F001          	movff	postdec0,btemp+1
  2218  007C84  EE01  F04C         	lfsr	0,_sys+58
  2219  007C88  CFEE F002          	movff	postinc0,btemp+2
  2220  007C8C  CFED F003          	movff	postdec0,btemp+3
  2221  007C90  0EFE               	movlw	254
  2222  007C92  2602               	addwf	btemp+2,f
  2223  007C94  0EFF               	movlw	255
  2224  007C96  2203               	addwfc	btemp+3,f
  2225  007C98  5001               	movf	btemp+1,w
  2226  007C9A  5C03               	subwf	btemp+3,w
  2227  007C9C  E102               	bnz	u1885
  2228  007C9E  5000               	movf	btemp,w
  2229  007CA0  5C02               	subwf	btemp+2,w
  2230  007CA2                     u1885:
  2231  007CA2  A0D8               	btfss	status,0,c
  2232  007CA4  D00D               	goto	l215
  2233  007CA6  EE11  F016         	lfsr	1,_sys+4
  2234  007CAA  EE01  F04E         	lfsr	0,_sys+60
  2235  007CAE  52EE               	movf	postinc0,f,c
  2236  007CB0  52E6               	movf	postinc1,f,c
  2237  007CB2  50E5               	movf	postdec1,w,c
  2238  007CB4  5CED               	subwf	postdec0,w,c
  2239  007CB6  E102               	bnz	u1895
  2240  007CB8  50E7               	movf	indf1,w,c
  2241  007CBA  5CEF               	subwf	indf0,w,c
  2242  007CBC                     u1895:
  2243  007CBC  A0D8               	btfss	status,0,c
  2244  007CBE  D0C0               	goto	L43
  2245                           ;adc.c: 430: else if((sys.ucv <= sys.v2)&&(sys.u
      +                          cv > sys.v3))uc_err = 1;
  2246  007CC0                     l215:
  2247  007CC0  EE11  F016         	lfsr	1,_sys+4
  2248  007CC4  EE01  F04E         	lfsr	0,_sys+60
  2249  007CC8  52EE               	movf	postinc0,f,c
  2250  007CCA  52E6               	movf	postinc1,f,c
  2251  007CCC  50E5               	movf	postdec1,w,c
  2252  007CCE  5CED               	subwf	postdec0,w,c
  2253  007CD0  E102               	bnz	u1915
  2254  007CD2  50E7               	movf	indf1,w,c
  2255  007CD4  5CEF               	subwf	indf0,w,c
  2256  007CD6                     u1915:
  2257  007CD6  A0D8               	btfss	status,0,c
  2258  007CD8  D00D               	goto	l217
  2259  007CDA  EE11  F016         	lfsr	1,_sys+4
  2260  007CDE  EE01  F050         	lfsr	0,_sys+62
  2261  007CE2  52EE               	movf	postinc0,f,c
  2262  007CE4  52E6               	movf	postinc1,f,c
  2263  007CE6  50E5               	movf	postdec1,w,c
  2264  007CE8  5CED               	subwf	postdec0,w,c
  2265  007CEA  E102               	bnz	u1925
  2266  007CEC  50E7               	movf	indf1,w,c
  2267  007CEE  5CEF               	subwf	indf0,w,c
  2268  007CF0                     u1925:
  2269  007CF0  A0D8               	btfss	status,0,c
  2270  007CF2  D0C2               	goto	L44
  2271                           ;adc.c: 431: else if((sys.ucv <= sys.v3)&&(sys.u
      +                          cv>0))uc_err = 0;
  2272  007CF4                     l217:
  2273  007CF4  EE11  F016         	lfsr	1,_sys+4
  2274  007CF8  EE01  F050         	lfsr	0,_sys+62
  2275  007CFC  52EE               	movf	postinc0,f,c
  2276  007CFE  52E6               	movf	postinc1,f,c
  2277  007D00  50E5               	movf	postdec1,w,c
  2278  007D02  5CED               	subwf	postdec0,w,c
  2279  007D04  E102               	bnz	u1945
  2280  007D06  50E7               	movf	indf1,w,c
  2281  007D08  5CEF               	subwf	indf0,w,c
  2282  007D0A                     u1945:
  2283  007D0A  A0D8               	btfss	status,0,c
  2284  007D0C  D0D3               	goto	l241
  2285  007D0E  0101               	movlb	(_sys+4) shr (0+8)
  2286  007D10  5116               	movf	(_sys+4)& (0+255),w,b
  2287  007D12  1117               	iorwf	(_sys+5)& (0+255),w,b
  2288  007D14  A4D8               	btfss	status,2,c
  2289  007D16  D065               	goto	u2080
  2290                           ;adc.c: 432: else if(sys.ucv == 0)uc_err = 4;
  2291  007D18  D0CD               	goto	l241
  2292                           ;adc.c: 433: }
  2293                           ;adc.c: 434: else if(uc_err == 2)
  2294  007D1A                     l212:
  2295  007D1A  CE89  FFE8         	movff	_uc_err,wreg
  2296  007D1E  0A02               	xorlw	2
  2297  007D20  A4D8               	btfss	status,2,c
  2298  007D22  D062               	goto	l223
  2299                           ;adc.c: 435: {
  2300  007D24  EE11  F016         	lfsr	1,_sys+4
  2301  007D28  EE01  F04C         	lfsr	0,_sys+58
  2302  007D2C  52EE               	movf	postinc0,f,c
  2303  007D2E  52E6               	movf	postinc1,f,c
  2304  007D30  50E5               	movf	postdec1,w,c
  2305  007D32  5CED               	subwf	postdec0,w,c
  2306  007D34  E102               	bnz	u1995
  2307  007D36  50E7               	movf	indf1,w,c
  2308  007D38  5CEF               	subwf	indf0,w,c
  2309  007D3A                     u1995:
  2310  007D3A  B0D8               	btfsc	status,0,c
  2311  007D3C  D002               	goto	l224
  2312  007D3E                     L40:
  2313  007D3E  0E03               	movlw	3
  2314  007D40  D0BF               	goto	L17
  2315                           ;adc.c: 437: else if((sys.ucv <= sys.v1)&&(sys.u
      +                          cv > sys.v2))uc_err = 2;
  2316  007D42                     l224:
  2317  007D42  EE11  F016         	lfsr	1,_sys+4
  2318  007D46  EE01  F04C         	lfsr	0,_sys+58
  2319  007D4A  52EE               	movf	postinc0,f,c
  2320  007D4C  52E6               	movf	postinc1,f,c
  2321  007D4E  50E5               	movf	postdec1,w,c
  2322  007D50  5CED               	subwf	postdec0,w,c
  2323  007D52  E102               	bnz	u2005
  2324  007D54  50E7               	movf	indf1,w,c
  2325  007D56  5CEF               	subwf	indf0,w,c
  2326  007D58                     u2005:
  2327  007D58  A0D8               	btfss	status,0,c
  2328  007D5A  D00D               	goto	l226
  2329  007D5C  EE11  F016         	lfsr	1,_sys+4
  2330  007D60  EE01  F04E         	lfsr	0,_sys+60
  2331  007D64  52EE               	movf	postinc0,f,c
  2332  007D66  52E6               	movf	postinc1,f,c
  2333  007D68  50E5               	movf	postdec1,w,c
  2334  007D6A  5CED               	subwf	postdec0,w,c
  2335  007D6C  E102               	bnz	u2015
  2336  007D6E  50E7               	movf	indf1,w,c
  2337  007D70  5CEF               	subwf	indf0,w,c
  2338  007D72                     u2015:
  2339  007D72  A0D8               	btfss	status,0,c
  2340  007D74  D065               	goto	L43
  2341                           ;adc.c: 438: else if((sys.ucv <= sys.v2-2)&&(sys
      +                          .ucv > sys.v3))uc_err = 1;
  2342  007D76                     l226:
  2343  007D76  EE01  F016         	lfsr	0,_sys+4
  2344  007D7A  CFEE F000          	movff	postinc0,btemp
  2345  007D7E  CFED F001          	movff	postdec0,btemp+1
  2346  007D82  EE01  F04E         	lfsr	0,_sys+60
  2347  007D86  CFEE F002          	movff	postinc0,btemp+2
  2348  007D8A  CFED F003          	movff	postdec0,btemp+3
  2349  007D8E  0EFE               	movlw	254
  2350  007D90  2602               	addwf	btemp+2,f
  2351  007D92  0EFF               	movlw	255
  2352  007D94  2203               	addwfc	btemp+3,f
  2353  007D96  5001               	movf	btemp+1,w
  2354  007D98  5C03               	subwf	btemp+3,w
  2355  007D9A  E102               	bnz	u2035
  2356  007D9C  5000               	movf	btemp,w
  2357  007D9E  5C02               	subwf	btemp+2,w
  2358  007DA0                     u2035:
  2359  007DA0  A0D8               	btfss	status,0,c
  2360  007DA2  D00D               	goto	l228
  2361  007DA4  EE11  F016         	lfsr	1,_sys+4
  2362  007DA8  EE01  F050         	lfsr	0,_sys+62
  2363  007DAC  52EE               	movf	postinc0,f,c
  2364  007DAE  52E6               	movf	postinc1,f,c
  2365  007DB0  50E5               	movf	postdec1,w,c
  2366  007DB2  5CED               	subwf	postdec0,w,c
  2367  007DB4  E102               	bnz	u2045
  2368  007DB6  50E7               	movf	indf1,w,c
  2369  007DB8  5CEF               	subwf	indf0,w,c
  2370  007DBA                     u2045:
  2371  007DBA  A0D8               	btfss	status,0,c
  2372  007DBC  D05D               	goto	L44
  2373                           ;adc.c: 439: else if((sys.ucv <= sys.v3)&&(sys.u
      +                          cv>0))uc_err = 0;
  2374  007DBE                     l228:
  2375  007DBE  EE11  F016         	lfsr	1,_sys+4
  2376  007DC2  EE01  F050         	lfsr	0,_sys+62
  2377  007DC6  52EE               	movf	postinc0,f,c
  2378  007DC8  52E6               	movf	postinc1,f,c
  2379  007DCA  50E5               	movf	postdec1,w,c
  2380  007DCC  5CED               	subwf	postdec0,w,c
  2381  007DCE  E102               	bnz	u2065
  2382  007DD0  50E7               	movf	indf1,w,c
  2383  007DD2  5CEF               	subwf	indf0,w,c
  2384  007DD4                     u2065:
  2385  007DD4  A0D8               	btfss	status,0,c
  2386  007DD6  D06E               	goto	l241
  2387  007DD8  0101               	movlb	(_sys+4) shr (0+8)
  2388  007DDA  5116               	movf	(_sys+4)& (0+255),w,b
  2389  007DDC  1117               	iorwf	(_sys+5)& (0+255),w,b
  2390  007DDE  B4D8               	btfsc	status,2,c
  2391  007DE0  D069               	goto	l241
  2392  007DE2                     u2080:
  2393  007DE2  010E               	movlb	_uc_err shr (0+8)
  2394  007DE4  6B89               	clrf	_uc_err& (0+255),b
  2395                           ;adc.c: 440: else if(sys.ucv == 0)uc_err = 4;
  2396  007DE6  D06E               	goto	l211
  2397                           ;adc.c: 441: }
  2398                           ;adc.c: 442: else if(uc_err == 1)
  2399  007DE8                     l223:
  2400  007DE8  CE89  F000         	movff	_uc_err,btemp
  2401  007DEC  0400               	decf	btemp,w
  2402  007DEE  A4D8               	btfss	status,2,c
  2403  007DF0  D069               	goto	l211
  2404                           ;adc.c: 443: {
  2405  007DF2  EE11  F016         	lfsr	1,_sys+4
  2406  007DF6  EE01  F04C         	lfsr	0,_sys+58
  2407  007DFA  52EE               	movf	postinc0,f,c
  2408  007DFC  52E6               	movf	postinc1,f,c
  2409  007DFE  50E5               	movf	postdec1,w,c
  2410  007E00  5CED               	subwf	postdec0,w,c
  2411  007E02  E102               	bnz	u2115
  2412  007E04  50E7               	movf	indf1,w,c
  2413  007E06  5CEF               	subwf	indf0,w,c
  2414  007E08                     u2115:
  2415  007E08  A0D8               	btfss	status,0,c
  2416  007E0A  D799               	goto	L40
  2417                           ;adc.c: 445: else if((sys.ucv <= sys.v1)&&(sys.u
      +                          cv > sys.v2))uc_err = 2;
  2418  007E0C  EE11  F016         	lfsr	1,_sys+4
  2419  007E10  EE01  F04C         	lfsr	0,_sys+58
  2420  007E14  52EE               	movf	postinc0,f,c
  2421  007E16  52E6               	movf	postinc1,f,c
  2422  007E18  50E5               	movf	postdec1,w,c
  2423  007E1A  5CED               	subwf	postdec0,w,c
  2424  007E1C  E102               	bnz	u2125
  2425  007E1E  50E7               	movf	indf1,w,c
  2426  007E20  5CEF               	subwf	indf0,w,c
  2427  007E22                     u2125:
  2428  007E22  A0D8               	btfss	status,0,c
  2429  007E24  D00F               	goto	l237
  2430  007E26  EE11  F016         	lfsr	1,_sys+4
  2431  007E2A  EE01  F04E         	lfsr	0,_sys+60
  2432  007E2E  52EE               	movf	postinc0,f,c
  2433  007E30  52E6               	movf	postinc1,f,c
  2434  007E32  50E5               	movf	postdec1,w,c
  2435  007E34  5CED               	subwf	postdec0,w,c
  2436  007E36  E102               	bnz	u2135
  2437  007E38  50E7               	movf	indf1,w,c
  2438  007E3A  5CEF               	subwf	indf0,w,c
  2439  007E3C                     u2135:
  2440  007E3C  B0D8               	btfsc	status,0,c
  2441  007E3E  D002               	goto	l237
  2442  007E40                     L43:
  2443  007E40  0E02               	movlw	2
  2444  007E42  D03E               	goto	L17
  2445                           ;adc.c: 446: else if((sys.ucv <= sys.v2)&&(sys.u
      +                          cv > sys.v3))uc_err = 1;
  2446  007E44                     l237:
  2447  007E44  EE11  F016         	lfsr	1,_sys+4
  2448  007E48  EE01  F04E         	lfsr	0,_sys+60
  2449  007E4C  52EE               	movf	postinc0,f,c
  2450  007E4E  52E6               	movf	postinc1,f,c
  2451  007E50  50E5               	movf	postdec1,w,c
  2452  007E52  5CED               	subwf	postdec0,w,c
  2453  007E54  E102               	bnz	u2155
  2454  007E56  50E7               	movf	indf1,w,c
  2455  007E58  5CEF               	subwf	indf0,w,c
  2456  007E5A                     u2155:
  2457  007E5A  A0D8               	btfss	status,0,c
  2458  007E5C  D00F               	goto	l239
  2459  007E5E  EE11  F016         	lfsr	1,_sys+4
  2460  007E62  EE01  F050         	lfsr	0,_sys+62
  2461  007E66  52EE               	movf	postinc0,f,c
  2462  007E68  52E6               	movf	postinc1,f,c
  2463  007E6A  50E5               	movf	postdec1,w,c
  2464  007E6C  5CED               	subwf	postdec0,w,c
  2465  007E6E  E102               	bnz	u2165
  2466  007E70  50E7               	movf	indf1,w,c
  2467  007E72  5CEF               	subwf	indf0,w,c
  2468  007E74                     u2165:
  2469  007E74  B0D8               	btfsc	status,0,c
  2470  007E76  D002               	goto	l239
  2471  007E78                     L44:
  2472  007E78  0E01               	movlw	1
  2473  007E7A  D022               	goto	L17
  2474                           ;adc.c: 447: else if((sys.ucv <= sys.v3-2)&&(sys
      +                          .ucv>0))uc_err = 0;
  2475  007E7C                     l239:
  2476  007E7C  EE01  F016         	lfsr	0,_sys+4
  2477  007E80  CFEE F000          	movff	postinc0,btemp
  2478  007E84  CFED F001          	movff	postdec0,btemp+1
  2479  007E88  EE01  F050         	lfsr	0,_sys+62
  2480  007E8C  CFEE F002          	movff	postinc0,btemp+2
  2481  007E90  CFED F003          	movff	postdec0,btemp+3
  2482  007E94  0EFE               	movlw	254
  2483  007E96  2602               	addwf	btemp+2,f
  2484  007E98  0EFF               	movlw	255
  2485  007E9A  2203               	addwfc	btemp+3,f
  2486  007E9C  5001               	movf	btemp+1,w
  2487  007E9E  5C03               	subwf	btemp+3,w
  2488  007EA0  E102               	bnz	u2185
  2489  007EA2  5000               	movf	btemp,w
  2490  007EA4  5C02               	subwf	btemp+2,w
  2491  007EA6                     u2185:
  2492  007EA6  A0D8               	btfss	status,0,c
  2493  007EA8  D005               	goto	l241
  2494  007EAA  0101               	movlb	(_sys+4) shr (0+8)
  2495  007EAC  5116               	movf	(_sys+4)& (0+255),w,b
  2496  007EAE  1117               	iorwf	(_sys+5)& (0+255),w,b
  2497  007EB0  A4D8               	btfss	status,2,c
  2498  007EB2  D797               	goto	u2080
  2499                           ;adc.c: 448: else if(sys.ucv == 0)uc_err = 4;
  2500  007EB4                     l241:
  2501  007EB4  0101               	movlb	(_sys+4) shr (0+8)
  2502  007EB6  5116               	movf	(_sys+4)& (0+255),w,b
  2503  007EB8  1117               	iorwf	(_sys+5)& (0+255),w,b
  2504  007EBA  A4D8               	btfss	status,2,c
  2505  007EBC  D003               	goto	l211
  2506  007EBE  0E04               	movlw	4
  2507  007EC0                     L17:
  2508  007EC0  CFE8 FE89          	movff	wreg,_uc_err
  2509                           ;adc.c: 450: }
  2510                           ;adc.c: 452: adm.channle = 3;
  2511  007EC4                     l211:
  2512  007EC4  0E03               	movlw	3
  2513  007EC6  D348               	goto	L11
  2514                           ;adc.c: 453: break;
  2515  007EC8                     l244:
  2516                           ;adc.c: 455: case 3:
  2517                           ;adc.c: 457: temp = temp *11;
  2518  007EC8  0E0B               	movlw	11
  2519  007ECA  6E04               	movwf	btemp+4
  2520  007ECC  6A05               	clrf	btemp+5
  2521  007ECE  6A06               	clrf	btemp+6
  2522  007ED0  6A07               	clrf	btemp+7
  2523  007ED2  0E39               	movlw	low (?a_cal_channle_val+16)
  2524  007ED4  6EE9               	movwf	fsr0l,c
  2525  007ED6  0E00               	movlw	high (?a_cal_channle_val+16)
  2526  007ED8  6EEA               	movwf	fsr0h,c
  2527  007EDA  EC11  F052         	call	llmul_f
  2528                           ;adc.c: 458: sys.iav = temp;
  2529  007EDE  C039  F118         	movff	?a_cal_channle_val+16,_sys+6
  2530  007EE2  C03A  F119         	movff	?a_cal_channle_val+17,_sys+7
  2531                           ;adc.c: 467: if((ia_err== 4)||(ia_err == 0))
  2532  007EE6  CE84  FFE8         	movff	_ia_err,wreg
  2533  007EEA  0A04               	xorlw	4
  2534  007EEC  B4D8               	btfsc	status,2,c
  2535  007EEE  D004               	goto	u2240
  2536  007EF0  010E               	movlb	_ia_err shr (0+8)
  2537  007EF2  5384               	movf	_ia_err& (0+255),f,b
  2538  007EF4  A4D8               	btfss	status,2,c
  2539  007EF6  D04D               	goto	l245
  2540  007EF8                     u2240:
  2541                           ;adc.c: 468: {
  2542  007EF8  EE11  F018         	lfsr	1,_sys+6
  2543  007EFC  EE01  F056         	lfsr	0,_sys+68
  2544  007F00  52EE               	movf	postinc0,f,c
  2545  007F02  52E6               	movf	postinc1,f,c
  2546  007F04  50E5               	movf	postdec1,w,c
  2547  007F06  5CED               	subwf	postdec0,w,c
  2548  007F08  E102               	bnz	u2255
  2549  007F0A  50E7               	movf	indf1,w,c
  2550  007F0C  5CEF               	subwf	indf0,w,c
  2551  007F0E                     u2255:
  2552  007F0E  A0D8               	btfss	status,0,c
  2553  007F10  D0B5               	goto	L48
  2554                           ;adc.c: 470: else if((sys.iav <= sys.c1)&&(sys.i
      +                          av > sys.c2))ia_err = 2;
  2555  007F12  EE11  F018         	lfsr	1,_sys+6
  2556  007F16  EE01  F056         	lfsr	0,_sys+68
  2557  007F1A  52EE               	movf	postinc0,f,c
  2558  007F1C  52E6               	movf	postinc1,f,c
  2559  007F1E  50E5               	movf	postdec1,w,c
  2560  007F20  5CED               	subwf	postdec0,w,c
  2561  007F22  E102               	bnz	u2265
  2562  007F24  50E7               	movf	indf1,w,c
  2563  007F26  5CEF               	subwf	indf0,w,c
  2564  007F28                     u2265:
  2565  007F28  A0D8               	btfss	status,0,c
  2566  007F2A  D00D               	goto	l248
  2567  007F2C  EE11  F018         	lfsr	1,_sys+6
  2568  007F30  EE01  F058         	lfsr	0,_sys+70
  2569  007F34  52EE               	movf	postinc0,f,c
  2570  007F36  52E6               	movf	postinc1,f,c
  2571  007F38  50E5               	movf	postdec1,w,c
  2572  007F3A  5CED               	subwf	postdec0,w,c
  2573  007F3C  E102               	bnz	u2275
  2574  007F3E  50E7               	movf	indf1,w,c
  2575  007F40  5CEF               	subwf	indf0,w,c
  2576  007F42                     u2275:
  2577  007F42  A0D8               	btfss	status,0,c
  2578  007F44  D11C               	goto	L51
  2579                           ;adc.c: 471: else if((sys.iav <= sys.c2)&&(sys.i
      +                          av > sys.c3))ia_err = 1;
  2580  007F46                     l248:
  2581  007F46  EE11  F018         	lfsr	1,_sys+6
  2582  007F4A  EE01  F058         	lfsr	0,_sys+70
  2583  007F4E  52EE               	movf	postinc0,f,c
  2584  007F50  52E6               	movf	postinc1,f,c
  2585  007F52  50E5               	movf	postdec1,w,c
  2586  007F54  5CED               	subwf	postdec0,w,c
  2587  007F56  E102               	bnz	u2295
  2588  007F58  50E7               	movf	indf1,w,c
  2589  007F5A  5CEF               	subwf	indf0,w,c
  2590  007F5C                     u2295:
  2591  007F5C  A0D8               	btfss	status,0,c
  2592  007F5E  D00D               	goto	l250
  2593  007F60  EE11  F018         	lfsr	1,_sys+6
  2594  007F64  EE01  F05A         	lfsr	0,_sys+72
  2595  007F68  52EE               	movf	postinc0,f,c
  2596  007F6A  52E6               	movf	postinc1,f,c
  2597  007F6C  50E5               	movf	postdec1,w,c
  2598  007F6E  5CED               	subwf	postdec0,w,c
  2599  007F70  E102               	bnz	u2305
  2600  007F72  50E7               	movf	indf1,w,c
  2601  007F74  5CEF               	subwf	indf0,w,c
  2602  007F76                     u2305:
  2603  007F76  A0D8               	btfss	status,0,c
  2604  007F78  D11E               	goto	L52
  2605                           ;adc.c: 472: else if((sys.iav <= sys.c3)&&(sys.i
      +                          av > 0))ia_err = 0;
  2606  007F7A                     l250:
  2607  007F7A  EE11  F018         	lfsr	1,_sys+6
  2608  007F7E  EE01  F05A         	lfsr	0,_sys+72
  2609  007F82  52EE               	movf	postinc0,f,c
  2610  007F84  52E6               	movf	postinc1,f,c
  2611  007F86  50E5               	movf	postdec1,w,c
  2612  007F88  5CED               	subwf	postdec0,w,c
  2613  007F8A  E102               	bnz	u2325
  2614  007F8C  50E7               	movf	indf1,w,c
  2615  007F8E  5CEF               	subwf	indf0,w,c
  2616  007F90                     u2325:
  2617  007F90  D05B               	goto	u2445
  2618                           ;adc.c: 473: else if(sys.iav == 0)ia_err = 4;
  2619                           ;adc.c: 474: }
  2620                           ;adc.c: 475: else if(ia_err == 3)
  2621  007F92                     l245:
  2622  007F92  CE84  FFE8         	movff	_ia_err,wreg
  2623  007F96  0A03               	xorlw	3
  2624  007F98  A4D8               	btfss	status,2,c
  2625  007F9A  D05E               	goto	l256
  2626                           ;adc.c: 476: {
  2627  007F9C  EE11  F018         	lfsr	1,_sys+6
  2628  007FA0  EE01  F056         	lfsr	0,_sys+68
  2629  007FA4  52EE               	movf	postinc0,f,c
  2630  007FA6  52E6               	movf	postinc1,f,c
  2631  007FA8  50E5               	movf	postdec1,w,c
  2632  007FAA  5CED               	subwf	postdec0,w,c
  2633  007FAC  E102               	bnz	u2375
  2634  007FAE  50E7               	movf	indf1,w,c
  2635  007FB0  5CEF               	subwf	indf0,w,c
  2636  007FB2                     u2375:
  2637  007FB2  A0D8               	btfss	status,0,c
  2638  007FB4  D063               	goto	L48
  2639                           ;adc.c: 478: else if((sys.iav <= sys.c1-2)&&(sys
      +                          .iav > sys.c2))ia_err = 2;
  2640  007FB6  EE01  F018         	lfsr	0,_sys+6
  2641  007FBA  CFEE F000          	movff	postinc0,btemp
  2642  007FBE  CFED F001          	movff	postdec0,btemp+1
  2643  007FC2  EE01  F056         	lfsr	0,_sys+68
  2644  007FC6  CFEE F002          	movff	postinc0,btemp+2
  2645  007FCA  CFED F003          	movff	postdec0,btemp+3
  2646  007FCE  0EFE               	movlw	254
  2647  007FD0  2602               	addwf	btemp+2,f
  2648  007FD2  0EFF               	movlw	255
  2649  007FD4  2203               	addwfc	btemp+3,f
  2650  007FD6  5001               	movf	btemp+1,w
  2651  007FD8  5C03               	subwf	btemp+3,w
  2652  007FDA  E102               	bnz	u2385
  2653  007FDC  5000               	movf	btemp,w
  2654  007FDE  5C02               	subwf	btemp+2,w
  2655  007FE0                     u2385:
  2656  007FE0  A0D8               	btfss	status,0,c
  2657  007FE2  D00D               	goto	l259
  2658  007FE4  EE11  F018         	lfsr	1,_sys+6
  2659  007FE8  EE01  F058         	lfsr	0,_sys+70
  2660  007FEC  52EE               	movf	postinc0,f,c
  2661  007FEE  52E6               	movf	postinc1,f,c
  2662  007FF0  50E5               	movf	postdec1,w,c
  2663  007FF2  5CED               	subwf	postdec0,w,c
  2664  007FF4  E102               	bnz	u2395
  2665  007FF6  50E7               	movf	indf1,w,c
  2666  007FF8  5CEF               	subwf	indf0,w,c
  2667  007FFA                     u2395:
  2668  007FFA  A0D8               	btfss	status,0,c
  2669  007FFC  D0C0               	goto	L51
  2670                           ;adc.c: 479: else if((sys.iav <= sys.c2)&&(sys.i
      +                          av > sys.c3))ia_err = 1;
  2671  007FFE                     l259:
  2672  007FFE  EE11  F018         	lfsr	1,_sys+6
  2673  008002  EE01  F058         	lfsr	0,_sys+70
  2674  008006  52EE               	movf	postinc0,f,c
  2675  008008  52E6               	movf	postinc1,f,c
  2676  00800A  50E5               	movf	postdec1,w,c
  2677  00800C  5CED               	subwf	postdec0,w,c
  2678  00800E  E102               	bnz	u2415
  2679  008010  50E7               	movf	indf1,w,c
  2680  008012  5CEF               	subwf	indf0,w,c
  2681  008014                     u2415:
  2682  008014  A0D8               	btfss	status,0,c
  2683  008016  D00D               	goto	l261
  2684  008018  EE11  F018         	lfsr	1,_sys+6
  2685  00801C  EE01  F05A         	lfsr	0,_sys+72
  2686  008020  52EE               	movf	postinc0,f,c
  2687  008022  52E6               	movf	postinc1,f,c
  2688  008024  50E5               	movf	postdec1,w,c
  2689  008026  5CED               	subwf	postdec0,w,c
  2690  008028  E102               	bnz	u2425
  2691  00802A  50E7               	movf	indf1,w,c
  2692  00802C  5CEF               	subwf	indf0,w,c
  2693  00802E                     u2425:
  2694  00802E  A0D8               	btfss	status,0,c
  2695  008030  D0C2               	goto	L52
  2696                           ;adc.c: 480: else if((sys.iav <= sys.c3)&&(sys.i
      +                          av>0))ia_err = 0;
  2697  008032                     l261:
  2698  008032  EE11  F018         	lfsr	1,_sys+6
  2699  008036  EE01  F05A         	lfsr	0,_sys+72
  2700  00803A  52EE               	movf	postinc0,f,c
  2701  00803C  52E6               	movf	postinc1,f,c
  2702  00803E  50E5               	movf	postdec1,w,c
  2703  008040  5CED               	subwf	postdec0,w,c
  2704  008042  E102               	bnz	u2445
  2705  008044  50E7               	movf	indf1,w,c
  2706  008046  5CEF               	subwf	indf0,w,c
  2707  008048                     u2445:
  2708  008048  A0D8               	btfss	status,0,c
  2709  00804A  D0D3               	goto	l285
  2710  00804C  0101               	movlb	(_sys+6) shr (0+8)
  2711  00804E  5118               	movf	(_sys+6)& (0+255),w,b
  2712  008050  1119               	iorwf	(_sys+7)& (0+255),w,b
  2713  008052  A4D8               	btfss	status,2,c
  2714  008054  D065               	goto	u2580
  2715                           ;adc.c: 481: else if(sys.iav == 0)ia_err = 4;
  2716  008056  D0CD               	goto	l285
  2717                           ;adc.c: 482: }
  2718                           ;adc.c: 483: else if(ia_err == 2)
  2719  008058                     l256:
  2720  008058  CE84  FFE8         	movff	_ia_err,wreg
  2721  00805C  0A02               	xorlw	2
  2722  00805E  A4D8               	btfss	status,2,c
  2723  008060  D062               	goto	l267
  2724                           ;adc.c: 484: {
  2725  008062  EE11  F018         	lfsr	1,_sys+6
  2726  008066  EE01  F056         	lfsr	0,_sys+68
  2727  00806A  52EE               	movf	postinc0,f,c
  2728  00806C  52E6               	movf	postinc1,f,c
  2729  00806E  50E5               	movf	postdec1,w,c
  2730  008070  5CED               	subwf	postdec0,w,c
  2731  008072  E102               	bnz	u2495
  2732  008074  50E7               	movf	indf1,w,c
  2733  008076  5CEF               	subwf	indf0,w,c
  2734  008078                     u2495:
  2735  008078  B0D8               	btfsc	status,0,c
  2736  00807A  D002               	goto	l268
  2737  00807C                     L48:
  2738  00807C  0E03               	movlw	3
  2739  00807E  D0BF               	goto	L18
  2740                           ;adc.c: 486: else if((sys.iav <= sys.c1)&&(sys.i
      +                          av > sys.c2))ia_err = 2;
  2741  008080                     l268:
  2742  008080  EE11  F018         	lfsr	1,_sys+6
  2743  008084  EE01  F056         	lfsr	0,_sys+68
  2744  008088  52EE               	movf	postinc0,f,c
  2745  00808A  52E6               	movf	postinc1,f,c
  2746  00808C  50E5               	movf	postdec1,w,c
  2747  00808E  5CED               	subwf	postdec0,w,c
  2748  008090  E102               	bnz	u2505
  2749  008092  50E7               	movf	indf1,w,c
  2750  008094  5CEF               	subwf	indf0,w,c
  2751  008096                     u2505:
  2752  008096  A0D8               	btfss	status,0,c
  2753  008098  D00D               	goto	l270
  2754  00809A  EE11  F018         	lfsr	1,_sys+6
  2755  00809E  EE01  F058         	lfsr	0,_sys+70
  2756  0080A2  52EE               	movf	postinc0,f,c
  2757  0080A4  52E6               	movf	postinc1,f,c
  2758  0080A6  50E5               	movf	postdec1,w,c
  2759  0080A8  5CED               	subwf	postdec0,w,c
  2760  0080AA  E102               	bnz	u2515
  2761  0080AC  50E7               	movf	indf1,w,c
  2762  0080AE  5CEF               	subwf	indf0,w,c
  2763  0080B0                     u2515:
  2764  0080B0  A0D8               	btfss	status,0,c
  2765  0080B2  D065               	goto	L51
  2766                           ;adc.c: 487: else if((sys.iav <= sys.c2-2)&&(sys
      +                          .iav > sys.c3))ia_err = 1;
  2767  0080B4                     l270:
  2768  0080B4  EE01  F018         	lfsr	0,_sys+6
  2769  0080B8  CFEE F000          	movff	postinc0,btemp
  2770  0080BC  CFED F001          	movff	postdec0,btemp+1
  2771  0080C0  EE01  F058         	lfsr	0,_sys+70
  2772  0080C4  CFEE F002          	movff	postinc0,btemp+2
  2773  0080C8  CFED F003          	movff	postdec0,btemp+3
  2774  0080CC  0EFE               	movlw	254
  2775  0080CE  2602               	addwf	btemp+2,f
  2776  0080D0  0EFF               	movlw	255
  2777  0080D2  2203               	addwfc	btemp+3,f
  2778  0080D4  5001               	movf	btemp+1,w
  2779  0080D6  5C03               	subwf	btemp+3,w
  2780  0080D8  E102               	bnz	u2535
  2781  0080DA  5000               	movf	btemp,w
  2782  0080DC  5C02               	subwf	btemp+2,w
  2783  0080DE                     u2535:
  2784  0080DE  A0D8               	btfss	status,0,c
  2785  0080E0  D00D               	goto	l272
  2786  0080E2  EE11  F018         	lfsr	1,_sys+6
  2787  0080E6  EE01  F05A         	lfsr	0,_sys+72
  2788  0080EA  52EE               	movf	postinc0,f,c
  2789  0080EC  52E6               	movf	postinc1,f,c
  2790  0080EE  50E5               	movf	postdec1,w,c
  2791  0080F0  5CED               	subwf	postdec0,w,c
  2792  0080F2  E102               	bnz	u2545
  2793  0080F4  50E7               	movf	indf1,w,c
  2794  0080F6  5CEF               	subwf	indf0,w,c
  2795  0080F8                     u2545:
  2796  0080F8  A0D8               	btfss	status,0,c
  2797  0080FA  D05D               	goto	L52
  2798                           ;adc.c: 488: else if((sys.iav <= sys.c3)&&(sys.i
      +                          av>0))ia_err = 0;
  2799  0080FC                     l272:
  2800  0080FC  EE11  F018         	lfsr	1,_sys+6
  2801  008100  EE01  F05A         	lfsr	0,_sys+72
  2802  008104  52EE               	movf	postinc0,f,c
  2803  008106  52E6               	movf	postinc1,f,c
  2804  008108  50E5               	movf	postdec1,w,c
  2805  00810A  5CED               	subwf	postdec0,w,c
  2806  00810C  E102               	bnz	u2565
  2807  00810E  50E7               	movf	indf1,w,c
  2808  008110  5CEF               	subwf	indf0,w,c
  2809  008112                     u2565:
  2810  008112  A0D8               	btfss	status,0,c
  2811  008114  D06E               	goto	l285
  2812  008116  0101               	movlb	(_sys+6) shr (0+8)
  2813  008118  5118               	movf	(_sys+6)& (0+255),w,b
  2814  00811A  1119               	iorwf	(_sys+7)& (0+255),w,b
  2815  00811C  B4D8               	btfsc	status,2,c
  2816  00811E  D069               	goto	l285
  2817  008120                     u2580:
  2818  008120  010E               	movlb	_ia_err shr (0+8)
  2819  008122  6B84               	clrf	_ia_err& (0+255),b
  2820                           ;adc.c: 489: else if(sys.iav == 0)ia_err = 4;
  2821  008124  D06E               	goto	l255
  2822                           ;adc.c: 490: }
  2823                           ;adc.c: 491: else if(ia_err == 1)
  2824  008126                     l267:
  2825  008126  CE84  F000         	movff	_ia_err,btemp
  2826  00812A  0400               	decf	btemp,w
  2827  00812C  A4D8               	btfss	status,2,c
  2828  00812E  D069               	goto	l255
  2829                           ;adc.c: 492: {
  2830  008130  EE11  F018         	lfsr	1,_sys+6
  2831  008134  EE01  F056         	lfsr	0,_sys+68
  2832  008138  52EE               	movf	postinc0,f,c
  2833  00813A  52E6               	movf	postinc1,f,c
  2834  00813C  50E5               	movf	postdec1,w,c
  2835  00813E  5CED               	subwf	postdec0,w,c
  2836  008140  E102               	bnz	u2615
  2837  008142  50E7               	movf	indf1,w,c
  2838  008144  5CEF               	subwf	indf0,w,c
  2839  008146                     u2615:
  2840  008146  A0D8               	btfss	status,0,c
  2841  008148  D799               	goto	L48
  2842                           ;adc.c: 494: else if((sys.iav <= sys.c1)&&(sys.i
      +                          av > sys.c2))ia_err = 2;
  2843  00814A  EE11  F018         	lfsr	1,_sys+6
  2844  00814E  EE01  F056         	lfsr	0,_sys+68
  2845  008152  52EE               	movf	postinc0,f,c
  2846  008154  52E6               	movf	postinc1,f,c
  2847  008156  50E5               	movf	postdec1,w,c
  2848  008158  5CED               	subwf	postdec0,w,c
  2849  00815A  E102               	bnz	u2625
  2850  00815C  50E7               	movf	indf1,w,c
  2851  00815E  5CEF               	subwf	indf0,w,c
  2852  008160                     u2625:
  2853  008160  A0D8               	btfss	status,0,c
  2854  008162  D00F               	goto	l281
  2855  008164  EE11  F018         	lfsr	1,_sys+6
  2856  008168  EE01  F058         	lfsr	0,_sys+70
  2857  00816C  52EE               	movf	postinc0,f,c
  2858  00816E  52E6               	movf	postinc1,f,c
  2859  008170  50E5               	movf	postdec1,w,c
  2860  008172  5CED               	subwf	postdec0,w,c
  2861  008174  E102               	bnz	u2635
  2862  008176  50E7               	movf	indf1,w,c
  2863  008178  5CEF               	subwf	indf0,w,c
  2864  00817A                     u2635:
  2865  00817A  B0D8               	btfsc	status,0,c
  2866  00817C  D002               	goto	l281
  2867  00817E                     L51:
  2868  00817E  0E02               	movlw	2
  2869  008180  D03E               	goto	L18
  2870                           ;adc.c: 495: else if((sys.iav <= sys.c2)&&(sys.i
      +                          av > sys.c3))ia_err = 1;
  2871  008182                     l281:
  2872  008182  EE11  F018         	lfsr	1,_sys+6
  2873  008186  EE01  F058         	lfsr	0,_sys+70
  2874  00818A  52EE               	movf	postinc0,f,c
  2875  00818C  52E6               	movf	postinc1,f,c
  2876  00818E  50E5               	movf	postdec1,w,c
  2877  008190  5CED               	subwf	postdec0,w,c
  2878  008192  E102               	bnz	u2655
  2879  008194  50E7               	movf	indf1,w,c
  2880  008196  5CEF               	subwf	indf0,w,c
  2881  008198                     u2655:
  2882  008198  A0D8               	btfss	status,0,c
  2883  00819A  D00F               	goto	l283
  2884  00819C  EE11  F018         	lfsr	1,_sys+6
  2885  0081A0  EE01  F05A         	lfsr	0,_sys+72
  2886  0081A4  52EE               	movf	postinc0,f,c
  2887  0081A6  52E6               	movf	postinc1,f,c
  2888  0081A8  50E5               	movf	postdec1,w,c
  2889  0081AA  5CED               	subwf	postdec0,w,c
  2890  0081AC  E102               	bnz	u2665
  2891  0081AE  50E7               	movf	indf1,w,c
  2892  0081B0  5CEF               	subwf	indf0,w,c
  2893  0081B2                     u2665:
  2894  0081B2  B0D8               	btfsc	status,0,c
  2895  0081B4  D002               	goto	l283
  2896  0081B6                     L52:
  2897  0081B6  0E01               	movlw	1
  2898  0081B8  D022               	goto	L18
  2899                           ;adc.c: 496: else if((sys.iav <= sys.c3-2)&&(sys
      +                          .iav>0))ia_err = 0;
  2900  0081BA                     l283:
  2901  0081BA  EE01  F018         	lfsr	0,_sys+6
  2902  0081BE  CFEE F000          	movff	postinc0,btemp
  2903  0081C2  CFED F001          	movff	postdec0,btemp+1
  2904  0081C6  EE01  F05A         	lfsr	0,_sys+72
  2905  0081CA  CFEE F002          	movff	postinc0,btemp+2
  2906  0081CE  CFED F003          	movff	postdec0,btemp+3
  2907  0081D2  0EFE               	movlw	254
  2908  0081D4  2602               	addwf	btemp+2,f
  2909  0081D6  0EFF               	movlw	255
  2910  0081D8  2203               	addwfc	btemp+3,f
  2911  0081DA  5001               	movf	btemp+1,w
  2912  0081DC  5C03               	subwf	btemp+3,w
  2913  0081DE  E102               	bnz	u2685
  2914  0081E0  5000               	movf	btemp,w
  2915  0081E2  5C02               	subwf	btemp+2,w
  2916  0081E4                     u2685:
  2917  0081E4  A0D8               	btfss	status,0,c
  2918  0081E6  D005               	goto	l285
  2919  0081E8  0101               	movlb	(_sys+6) shr (0+8)
  2920  0081EA  5118               	movf	(_sys+6)& (0+255),w,b
  2921  0081EC  1119               	iorwf	(_sys+7)& (0+255),w,b
  2922  0081EE  A4D8               	btfss	status,2,c
  2923  0081F0  D797               	goto	u2580
  2924                           ;adc.c: 497: else if(sys.iav == 0)ia_err = 4;
  2925  0081F2                     l285:
  2926  0081F2  0101               	movlb	(_sys+6) shr (0+8)
  2927  0081F4  5118               	movf	(_sys+6)& (0+255),w,b
  2928  0081F6  1119               	iorwf	(_sys+7)& (0+255),w,b
  2929  0081F8  A4D8               	btfss	status,2,c
  2930  0081FA  D003               	goto	l255
  2931  0081FC  0E04               	movlw	4
  2932  0081FE                     L18:
  2933  0081FE  CFE8 FE84          	movff	wreg,_ia_err
  2934                           ;adc.c: 499: }
  2935                           ;adc.c: 502: if(adm.ch_num == 4)
  2936  008202                     l255:
  2937  008202  C018  FFE8         	movff	_adm+2,wreg
  2938  008206  0A04               	xorlw	4
  2939  008208  A4D8               	btfss	status,2,c
  2940  00820A  D006               	goto	l288
  2941                           ;adc.c: 503: {
  2942  00820C  0100               	movlb	_adm shr (0+8)
  2943  00820E  6B16               	clrf	_adm& (0+255),b
  2944                           ;adc.c: 505: sys.err_judge_flag = 1;
  2945  008210  0E01               	movlw	1
  2946  008212  CFE8 F161          	movff	wreg,_sys+79
  2947                           ;adc.c: 506: }
  2948  008216  D35E               	goto	l110
  2949  008218                     l288:
  2950                           ;adc.c: 508: {
  2951  008218  0E04               	movlw	4
  2952  00821A  D19E               	goto	L11
  2953                           ;adc.c: 510: }
  2954                           ;adc.c: 511: break;
  2955  00821C                     l290:
  2956                           ;adc.c: 513: case 4:
  2957                           ;adc.c: 514: temp = temp *11;
  2958  00821C  0E0B               	movlw	11
  2959  00821E  6E04               	movwf	btemp+4
  2960  008220  6A05               	clrf	btemp+5
  2961  008222  6A06               	clrf	btemp+6
  2962  008224  6A07               	clrf	btemp+7
  2963  008226  0E39               	movlw	low (?a_cal_channle_val+16)
  2964  008228  6EE9               	movwf	fsr0l,c
  2965  00822A  0E00               	movlw	high (?a_cal_channle_val+16)
  2966  00822C  6EEA               	movwf	fsr0h,c
  2967  00822E  EC11  F052         	call	llmul_f
  2968                           ;adc.c: 515: sys.ibv = temp;
  2969  008232  C039  F11A         	movff	?a_cal_channle_val+16,_sys+8
  2970  008236  C03A  F11B         	movff	?a_cal_channle_val+17,_sys+9
  2971                           ;adc.c: 523: if((ib_err== 4)||(ib_err == 0))
  2972  00823A  CE85  FFE8         	movff	_ib_err,wreg
  2973  00823E  0A04               	xorlw	4
  2974  008240  B4D8               	btfsc	status,2,c
  2975  008242  D004               	goto	u2750
  2976  008244  010E               	movlb	_ib_err shr (0+8)
  2977  008246  5385               	movf	_ib_err& (0+255),f,b
  2978  008248  A4D8               	btfss	status,2,c
  2979  00824A  D04D               	goto	l291
  2980  00824C                     u2750:
  2981                           ;adc.c: 524: {
  2982  00824C  EE11  F01A         	lfsr	1,_sys+8
  2983  008250  EE01  F056         	lfsr	0,_sys+68
  2984  008254  52EE               	movf	postinc0,f,c
  2985  008256  52E6               	movf	postinc1,f,c
  2986  008258  50E5               	movf	postdec1,w,c
  2987  00825A  5CED               	subwf	postdec0,w,c
  2988  00825C  E102               	bnz	u2765
  2989  00825E  50E7               	movf	indf1,w,c
  2990  008260  5CEF               	subwf	indf0,w,c
  2991  008262                     u2765:
  2992  008262  A0D8               	btfss	status,0,c
  2993  008264  D0B5               	goto	L56
  2994                           ;adc.c: 526: else if((sys.ibv <= sys.c1)&&(sys.i
      +                          bv > sys.c2))ib_err = 2;
  2995  008266  EE11  F01A         	lfsr	1,_sys+8
  2996  00826A  EE01  F056         	lfsr	0,_sys+68
  2997  00826E  52EE               	movf	postinc0,f,c
  2998  008270  52E6               	movf	postinc1,f,c
  2999  008272  50E5               	movf	postdec1,w,c
  3000  008274  5CED               	subwf	postdec0,w,c
  3001  008276  E102               	bnz	u2775
  3002  008278  50E7               	movf	indf1,w,c
  3003  00827A  5CEF               	subwf	indf0,w,c
  3004  00827C                     u2775:
  3005  00827C  A0D8               	btfss	status,0,c
  3006  00827E  D00D               	goto	l294
  3007  008280  EE11  F01A         	lfsr	1,_sys+8
  3008  008284  EE01  F058         	lfsr	0,_sys+70
  3009  008288  52EE               	movf	postinc0,f,c
  3010  00828A  52E6               	movf	postinc1,f,c
  3011  00828C  50E5               	movf	postdec1,w,c
  3012  00828E  5CED               	subwf	postdec0,w,c
  3013  008290  E102               	bnz	u2785
  3014  008292  50E7               	movf	indf1,w,c
  3015  008294  5CEF               	subwf	indf0,w,c
  3016  008296                     u2785:
  3017  008296  A0D8               	btfss	status,0,c
  3018  008298  D11C               	goto	L59
  3019                           ;adc.c: 527: else if((sys.ibv <= sys.c2)&&(sys.i
      +                          bv > sys.c3))ib_err = 1;
  3020  00829A                     l294:
  3021  00829A  EE11  F01A         	lfsr	1,_sys+8
  3022  00829E  EE01  F058         	lfsr	0,_sys+70
  3023  0082A2  52EE               	movf	postinc0,f,c
  3024  0082A4  52E6               	movf	postinc1,f,c
  3025  0082A6  50E5               	movf	postdec1,w,c
  3026  0082A8  5CED               	subwf	postdec0,w,c
  3027  0082AA  E102               	bnz	u2805
  3028  0082AC  50E7               	movf	indf1,w,c
  3029  0082AE  5CEF               	subwf	indf0,w,c
  3030  0082B0                     u2805:
  3031  0082B0  A0D8               	btfss	status,0,c
  3032  0082B2  D00D               	goto	l296
  3033  0082B4  EE11  F01A         	lfsr	1,_sys+8
  3034  0082B8  EE01  F05A         	lfsr	0,_sys+72
  3035  0082BC  52EE               	movf	postinc0,f,c
  3036  0082BE  52E6               	movf	postinc1,f,c
  3037  0082C0  50E5               	movf	postdec1,w,c
  3038  0082C2  5CED               	subwf	postdec0,w,c
  3039  0082C4  E102               	bnz	u2815
  3040  0082C6  50E7               	movf	indf1,w,c
  3041  0082C8  5CEF               	subwf	indf0,w,c
  3042  0082CA                     u2815:
  3043  0082CA  A0D8               	btfss	status,0,c
  3044  0082CC  D11E               	goto	L60
  3045                           ;adc.c: 528: else if((sys.ibv <= sys.c3)&&(sys.i
      +                          bv > 0))ib_err = 0;
  3046  0082CE                     l296:
  3047  0082CE  EE11  F01A         	lfsr	1,_sys+8
  3048  0082D2  EE01  F05A         	lfsr	0,_sys+72
  3049  0082D6  52EE               	movf	postinc0,f,c
  3050  0082D8  52E6               	movf	postinc1,f,c
  3051  0082DA  50E5               	movf	postdec1,w,c
  3052  0082DC  5CED               	subwf	postdec0,w,c
  3053  0082DE  E102               	bnz	u2835
  3054  0082E0  50E7               	movf	indf1,w,c
  3055  0082E2  5CEF               	subwf	indf0,w,c
  3056  0082E4                     u2835:
  3057  0082E4  D05B               	goto	u2955
  3058                           ;adc.c: 529: else if(sys.ibv == 0)ib_err = 4;
  3059                           ;adc.c: 530: }
  3060                           ;adc.c: 531: else if(ib_err == 3)
  3061  0082E6                     l291:
  3062  0082E6  CE85  FFE8         	movff	_ib_err,wreg
  3063  0082EA  0A03               	xorlw	3
  3064  0082EC  A4D8               	btfss	status,2,c
  3065  0082EE  D05E               	goto	l302
  3066                           ;adc.c: 532: {
  3067  0082F0  EE11  F01A         	lfsr	1,_sys+8
  3068  0082F4  EE01  F056         	lfsr	0,_sys+68
  3069  0082F8  52EE               	movf	postinc0,f,c
  3070  0082FA  52E6               	movf	postinc1,f,c
  3071  0082FC  50E5               	movf	postdec1,w,c
  3072  0082FE  5CED               	subwf	postdec0,w,c
  3073  008300  E102               	bnz	u2885
  3074  008302  50E7               	movf	indf1,w,c
  3075  008304  5CEF               	subwf	indf0,w,c
  3076  008306                     u2885:
  3077  008306  A0D8               	btfss	status,0,c
  3078  008308  D063               	goto	L56
  3079                           ;adc.c: 534: else if((sys.ibv <= sys.c1-2)&&(sys
      +                          .ibv > sys.c2))ib_err = 2;
  3080  00830A  EE01  F01A         	lfsr	0,_sys+8
  3081  00830E  CFEE F000          	movff	postinc0,btemp
  3082  008312  CFED F001          	movff	postdec0,btemp+1
  3083  008316  EE01  F056         	lfsr	0,_sys+68
  3084  00831A  CFEE F002          	movff	postinc0,btemp+2
  3085  00831E  CFED F003          	movff	postdec0,btemp+3
  3086  008322  0EFE               	movlw	254
  3087  008324  2602               	addwf	btemp+2,f
  3088  008326  0EFF               	movlw	255
  3089  008328  2203               	addwfc	btemp+3,f
  3090  00832A  5001               	movf	btemp+1,w
  3091  00832C  5C03               	subwf	btemp+3,w
  3092  00832E  E102               	bnz	u2895
  3093  008330  5000               	movf	btemp,w
  3094  008332  5C02               	subwf	btemp+2,w
  3095  008334                     u2895:
  3096  008334  A0D8               	btfss	status,0,c
  3097  008336  D00D               	goto	l305
  3098  008338  EE11  F01A         	lfsr	1,_sys+8
  3099  00833C  EE01  F058         	lfsr	0,_sys+70
  3100  008340  52EE               	movf	postinc0,f,c
  3101  008342  52E6               	movf	postinc1,f,c
  3102  008344  50E5               	movf	postdec1,w,c
  3103  008346  5CED               	subwf	postdec0,w,c
  3104  008348  E102               	bnz	u2905
  3105  00834A  50E7               	movf	indf1,w,c
  3106  00834C  5CEF               	subwf	indf0,w,c
  3107  00834E                     u2905:
  3108  00834E  A0D8               	btfss	status,0,c
  3109  008350  D0C0               	goto	L59
  3110                           ;adc.c: 535: else if((sys.ibv <= sys.c2)&&(sys.i
      +                          bv > sys.c3))ib_err = 1;
  3111  008352                     l305:
  3112  008352  EE11  F01A         	lfsr	1,_sys+8
  3113  008356  EE01  F058         	lfsr	0,_sys+70
  3114  00835A  52EE               	movf	postinc0,f,c
  3115  00835C  52E6               	movf	postinc1,f,c
  3116  00835E  50E5               	movf	postdec1,w,c
  3117  008360  5CED               	subwf	postdec0,w,c
  3118  008362  E102               	bnz	u2925
  3119  008364  50E7               	movf	indf1,w,c
  3120  008366  5CEF               	subwf	indf0,w,c
  3121  008368                     u2925:
  3122  008368  A0D8               	btfss	status,0,c
  3123  00836A  D00D               	goto	l307
  3124  00836C  EE11  F01A         	lfsr	1,_sys+8
  3125  008370  EE01  F05A         	lfsr	0,_sys+72
  3126  008374  52EE               	movf	postinc0,f,c
  3127  008376  52E6               	movf	postinc1,f,c
  3128  008378  50E5               	movf	postdec1,w,c
  3129  00837A  5CED               	subwf	postdec0,w,c
  3130  00837C  E102               	bnz	u2935
  3131  00837E  50E7               	movf	indf1,w,c
  3132  008380  5CEF               	subwf	indf0,w,c
  3133  008382                     u2935:
  3134  008382  A0D8               	btfss	status,0,c
  3135  008384  D0C2               	goto	L60
  3136                           ;adc.c: 536: else if((sys.ibv <= sys.c3)&&(sys.i
      +                          bv>0))ib_err = 0;
  3137  008386                     l307:
  3138  008386  EE11  F01A         	lfsr	1,_sys+8
  3139  00838A  EE01  F05A         	lfsr	0,_sys+72
  3140  00838E  52EE               	movf	postinc0,f,c
  3141  008390  52E6               	movf	postinc1,f,c
  3142  008392  50E5               	movf	postdec1,w,c
  3143  008394  5CED               	subwf	postdec0,w,c
  3144  008396  E102               	bnz	u2955
  3145  008398  50E7               	movf	indf1,w,c
  3146  00839A  5CEF               	subwf	indf0,w,c
  3147  00839C                     u2955:
  3148  00839C  A0D8               	btfss	status,0,c
  3149  00839E  D0D3               	goto	l331
  3150  0083A0  0101               	movlb	(_sys+8) shr (0+8)
  3151  0083A2  511A               	movf	(_sys+8)& (0+255),w,b
  3152  0083A4  111B               	iorwf	(_sys+9)& (0+255),w,b
  3153  0083A6  A4D8               	btfss	status,2,c
  3154  0083A8  D065               	goto	u3090
  3155                           ;adc.c: 537: else if(sys.ibv == 0)ib_err = 4;
  3156  0083AA  D0CD               	goto	l331
  3157                           ;adc.c: 538: }
  3158                           ;adc.c: 539: else if(ib_err == 2)
  3159  0083AC                     l302:
  3160  0083AC  CE85  FFE8         	movff	_ib_err,wreg
  3161  0083B0  0A02               	xorlw	2
  3162  0083B2  A4D8               	btfss	status,2,c
  3163  0083B4  D062               	goto	l313
  3164                           ;adc.c: 540: {
  3165  0083B6  EE11  F01A         	lfsr	1,_sys+8
  3166  0083BA  EE01  F056         	lfsr	0,_sys+68
  3167  0083BE  52EE               	movf	postinc0,f,c
  3168  0083C0  52E6               	movf	postinc1,f,c
  3169  0083C2  50E5               	movf	postdec1,w,c
  3170  0083C4  5CED               	subwf	postdec0,w,c
  3171  0083C6  E102               	bnz	u3005
  3172  0083C8  50E7               	movf	indf1,w,c
  3173  0083CA  5CEF               	subwf	indf0,w,c
  3174  0083CC                     u3005:
  3175  0083CC  B0D8               	btfsc	status,0,c
  3176  0083CE  D002               	goto	l314
  3177  0083D0                     L56:
  3178  0083D0  0E03               	movlw	3
  3179  0083D2  D0BF               	goto	L19
  3180                           ;adc.c: 542: else if((sys.ibv <= sys.c1)&&(sys.i
      +                          bv > sys.c2))ib_err = 2;
  3181  0083D4                     l314:
  3182  0083D4  EE11  F01A         	lfsr	1,_sys+8
  3183  0083D8  EE01  F056         	lfsr	0,_sys+68
  3184  0083DC  52EE               	movf	postinc0,f,c
  3185  0083DE  52E6               	movf	postinc1,f,c
  3186  0083E0  50E5               	movf	postdec1,w,c
  3187  0083E2  5CED               	subwf	postdec0,w,c
  3188  0083E4  E102               	bnz	u3015
  3189  0083E6  50E7               	movf	indf1,w,c
  3190  0083E8  5CEF               	subwf	indf0,w,c
  3191  0083EA                     u3015:
  3192  0083EA  A0D8               	btfss	status,0,c
  3193  0083EC  D00D               	goto	l316
  3194  0083EE  EE11  F01A         	lfsr	1,_sys+8
  3195  0083F2  EE01  F058         	lfsr	0,_sys+70
  3196  0083F6  52EE               	movf	postinc0,f,c
  3197  0083F8  52E6               	movf	postinc1,f,c
  3198  0083FA  50E5               	movf	postdec1,w,c
  3199  0083FC  5CED               	subwf	postdec0,w,c
  3200  0083FE  E102               	bnz	u3025
  3201  008400  50E7               	movf	indf1,w,c
  3202  008402  5CEF               	subwf	indf0,w,c
  3203  008404                     u3025:
  3204  008404  A0D8               	btfss	status,0,c
  3205  008406  D065               	goto	L59
  3206                           ;adc.c: 543: else if((sys.ibv <= sys.c2-2)&&(sys
      +                          .ibv > sys.c3))ib_err = 1;
  3207  008408                     l316:
  3208  008408  EE01  F01A         	lfsr	0,_sys+8
  3209  00840C  CFEE F000          	movff	postinc0,btemp
  3210  008410  CFED F001          	movff	postdec0,btemp+1
  3211  008414  EE01  F058         	lfsr	0,_sys+70
  3212  008418  CFEE F002          	movff	postinc0,btemp+2
  3213  00841C  CFED F003          	movff	postdec0,btemp+3
  3214  008420  0EFE               	movlw	254
  3215  008422  2602               	addwf	btemp+2,f
  3216  008424  0EFF               	movlw	255
  3217  008426  2203               	addwfc	btemp+3,f
  3218  008428  5001               	movf	btemp+1,w
  3219  00842A  5C03               	subwf	btemp+3,w
  3220  00842C  E102               	bnz	u3045
  3221  00842E  5000               	movf	btemp,w
  3222  008430  5C02               	subwf	btemp+2,w
  3223  008432                     u3045:
  3224  008432  A0D8               	btfss	status,0,c
  3225  008434  D00D               	goto	l318
  3226  008436  EE11  F01A         	lfsr	1,_sys+8
  3227  00843A  EE01  F05A         	lfsr	0,_sys+72
  3228  00843E  52EE               	movf	postinc0,f,c
  3229  008440  52E6               	movf	postinc1,f,c
  3230  008442  50E5               	movf	postdec1,w,c
  3231  008444  5CED               	subwf	postdec0,w,c
  3232  008446  E102               	bnz	u3055
  3233  008448  50E7               	movf	indf1,w,c
  3234  00844A  5CEF               	subwf	indf0,w,c
  3235  00844C                     u3055:
  3236  00844C  A0D8               	btfss	status,0,c
  3237  00844E  D05D               	goto	L60
  3238                           ;adc.c: 544: else if((sys.ibv <= sys.c3)&&(sys.i
      +                          bv>0))ib_err = 0;
  3239  008450                     l318:
  3240  008450  EE11  F01A         	lfsr	1,_sys+8
  3241  008454  EE01  F05A         	lfsr	0,_sys+72
  3242  008458  52EE               	movf	postinc0,f,c
  3243  00845A  52E6               	movf	postinc1,f,c
  3244  00845C  50E5               	movf	postdec1,w,c
  3245  00845E  5CED               	subwf	postdec0,w,c
  3246  008460  E102               	bnz	u3075
  3247  008462  50E7               	movf	indf1,w,c
  3248  008464  5CEF               	subwf	indf0,w,c
  3249  008466                     u3075:
  3250  008466  A0D8               	btfss	status,0,c
  3251  008468  D06E               	goto	l331
  3252  00846A  0101               	movlb	(_sys+8) shr (0+8)
  3253  00846C  511A               	movf	(_sys+8)& (0+255),w,b
  3254  00846E  111B               	iorwf	(_sys+9)& (0+255),w,b
  3255  008470  B4D8               	btfsc	status,2,c
  3256  008472  D069               	goto	l331
  3257  008474                     u3090:
  3258  008474  010E               	movlb	_ib_err shr (0+8)
  3259  008476  6B85               	clrf	_ib_err& (0+255),b
  3260                           ;adc.c: 545: else if(sys.ibv == 0)ib_err = 4;
  3261  008478  D06E               	goto	l301
  3262                           ;adc.c: 546: }
  3263                           ;adc.c: 547: else if(ib_err == 1)
  3264  00847A                     l313:
  3265  00847A  CE85  F000         	movff	_ib_err,btemp
  3266  00847E  0400               	decf	btemp,w
  3267  008480  A4D8               	btfss	status,2,c
  3268  008482  D069               	goto	l301
  3269                           ;adc.c: 548: {
  3270  008484  EE11  F01A         	lfsr	1,_sys+8
  3271  008488  EE01  F056         	lfsr	0,_sys+68
  3272  00848C  52EE               	movf	postinc0,f,c
  3273  00848E  52E6               	movf	postinc1,f,c
  3274  008490  50E5               	movf	postdec1,w,c
  3275  008492  5CED               	subwf	postdec0,w,c
  3276  008494  E102               	bnz	u3125
  3277  008496  50E7               	movf	indf1,w,c
  3278  008498  5CEF               	subwf	indf0,w,c
  3279  00849A                     u3125:
  3280  00849A  A0D8               	btfss	status,0,c
  3281  00849C  D799               	goto	L56
  3282                           ;adc.c: 550: else if((sys.ibv <= sys.c1)&&(sys.i
      +                          bv > sys.c2))ib_err = 2;
  3283  00849E  EE11  F01A         	lfsr	1,_sys+8
  3284  0084A2  EE01  F056         	lfsr	0,_sys+68
  3285  0084A6  52EE               	movf	postinc0,f,c
  3286  0084A8  52E6               	movf	postinc1,f,c
  3287  0084AA  50E5               	movf	postdec1,w,c
  3288  0084AC  5CED               	subwf	postdec0,w,c
  3289  0084AE  E102               	bnz	u3135
  3290  0084B0  50E7               	movf	indf1,w,c
  3291  0084B2  5CEF               	subwf	indf0,w,c
  3292  0084B4                     u3135:
  3293  0084B4  A0D8               	btfss	status,0,c
  3294  0084B6  D00F               	goto	l327
  3295  0084B8  EE11  F01A         	lfsr	1,_sys+8
  3296  0084BC  EE01  F058         	lfsr	0,_sys+70
  3297  0084C0  52EE               	movf	postinc0,f,c
  3298  0084C2  52E6               	movf	postinc1,f,c
  3299  0084C4  50E5               	movf	postdec1,w,c
  3300  0084C6  5CED               	subwf	postdec0,w,c
  3301  0084C8  E102               	bnz	u3145
  3302  0084CA  50E7               	movf	indf1,w,c
  3303  0084CC  5CEF               	subwf	indf0,w,c
  3304  0084CE                     u3145:
  3305  0084CE  B0D8               	btfsc	status,0,c
  3306  0084D0  D002               	goto	l327
  3307  0084D2                     L59:
  3308  0084D2  0E02               	movlw	2
  3309  0084D4  D03E               	goto	L19
  3310                           ;adc.c: 551: else if((sys.ibv <= sys.c2)&&(sys.i
      +                          bv > sys.c3))ib_err = 1;
  3311  0084D6                     l327:
  3312  0084D6  EE11  F01A         	lfsr	1,_sys+8
  3313  0084DA  EE01  F058         	lfsr	0,_sys+70
  3314  0084DE  52EE               	movf	postinc0,f,c
  3315  0084E0  52E6               	movf	postinc1,f,c
  3316  0084E2  50E5               	movf	postdec1,w,c
  3317  0084E4  5CED               	subwf	postdec0,w,c
  3318  0084E6  E102               	bnz	u3165
  3319  0084E8  50E7               	movf	indf1,w,c
  3320  0084EA  5CEF               	subwf	indf0,w,c
  3321  0084EC                     u3165:
  3322  0084EC  A0D8               	btfss	status,0,c
  3323  0084EE  D00F               	goto	l329
  3324  0084F0  EE11  F01A         	lfsr	1,_sys+8
  3325  0084F4  EE01  F05A         	lfsr	0,_sys+72
  3326  0084F8  52EE               	movf	postinc0,f,c
  3327  0084FA  52E6               	movf	postinc1,f,c
  3328  0084FC  50E5               	movf	postdec1,w,c
  3329  0084FE  5CED               	subwf	postdec0,w,c
  3330  008500  E102               	bnz	u3175
  3331  008502  50E7               	movf	indf1,w,c
  3332  008504  5CEF               	subwf	indf0,w,c
  3333  008506                     u3175:
  3334  008506  B0D8               	btfsc	status,0,c
  3335  008508  D002               	goto	l329
  3336  00850A                     L60:
  3337  00850A  0E01               	movlw	1
  3338  00850C  D022               	goto	L19
  3339                           ;adc.c: 552: else if((sys.ibv <= sys.c3-2)&&(sys
      +                          .ibv>0))ib_err = 0;
  3340  00850E                     l329:
  3341  00850E  EE01  F01A         	lfsr	0,_sys+8
  3342  008512  CFEE F000          	movff	postinc0,btemp
  3343  008516  CFED F001          	movff	postdec0,btemp+1
  3344  00851A  EE01  F05A         	lfsr	0,_sys+72
  3345  00851E  CFEE F002          	movff	postinc0,btemp+2
  3346  008522  CFED F003          	movff	postdec0,btemp+3
  3347  008526  0EFE               	movlw	254
  3348  008528  2602               	addwf	btemp+2,f
  3349  00852A  0EFF               	movlw	255
  3350  00852C  2203               	addwfc	btemp+3,f
  3351  00852E  5001               	movf	btemp+1,w
  3352  008530  5C03               	subwf	btemp+3,w
  3353  008532  E102               	bnz	u3195
  3354  008534  5000               	movf	btemp,w
  3355  008536  5C02               	subwf	btemp+2,w
  3356  008538                     u3195:
  3357  008538  A0D8               	btfss	status,0,c
  3358  00853A  D005               	goto	l331
  3359  00853C  0101               	movlb	(_sys+8) shr (0+8)
  3360  00853E  511A               	movf	(_sys+8)& (0+255),w,b
  3361  008540  111B               	iorwf	(_sys+9)& (0+255),w,b
  3362  008542  A4D8               	btfss	status,2,c
  3363  008544  D797               	goto	u3090
  3364                           ;adc.c: 553: else if(sys.ibv == 0)ib_err = 4;
  3365  008546                     l331:
  3366  008546  0101               	movlb	(_sys+8) shr (0+8)
  3367  008548  511A               	movf	(_sys+8)& (0+255),w,b
  3368  00854A  111B               	iorwf	(_sys+9)& (0+255),w,b
  3369  00854C  A4D8               	btfss	status,2,c
  3370  00854E  D003               	goto	l301
  3371  008550  0E04               	movlw	4
  3372  008552                     L19:
  3373  008552  CFE8 FE85          	movff	wreg,_ib_err
  3374                           ;adc.c: 555: }
  3375                           ;adc.c: 558: adm.channle = 5;
  3376  008556                     l301:
  3377  008556  0E05               	movlw	5
  3378  008558                     L11:
  3379  008558  CFE8 F016          	movff	wreg,_adm
  3380                           ;adc.c: 559: break;
  3381  00855C  D1BB               	goto	l110
  3382  00855E                     l334:
  3383                           ;adc.c: 560: case 5:
  3384                           ;adc.c: 561: temp = temp *11;
  3385  00855E  0E0B               	movlw	11
  3386  008560  6E04               	movwf	btemp+4
  3387  008562  6A05               	clrf	btemp+5
  3388  008564  6A06               	clrf	btemp+6
  3389  008566  6A07               	clrf	btemp+7
  3390  008568  0E39               	movlw	low (?a_cal_channle_val+16)
  3391  00856A  6EE9               	movwf	fsr0l,c
  3392  00856C  0E00               	movlw	high (?a_cal_channle_val+16)
  3393  00856E  6EEA               	movwf	fsr0h,c
  3394  008570  EC11  F052         	call	llmul_f
  3395                           ;adc.c: 562: sys.icv = temp;
  3396  008574  C039  F11C         	movff	?a_cal_channle_val+16,_sys+10
  3397  008578  C03A  F11D         	movff	?a_cal_channle_val+17,_sys+11
  3398                           ;adc.c: 570: if((ic_err== 4)||(ic_err == 0))
  3399  00857C  CE86  FFE8         	movff	_ic_err,wreg
  3400  008580  0A04               	xorlw	4
  3401  008582  B4D8               	btfsc	status,2,c
  3402  008584  D004               	goto	u3250
  3403  008586  010E               	movlb	_ic_err shr (0+8)
  3404  008588  5386               	movf	_ic_err& (0+255),f,b
  3405  00858A  A4D8               	btfss	status,2,c
  3406  00858C  D04D               	goto	l335
  3407  00858E                     u3250:
  3408                           ;adc.c: 571: {
  3409  00858E  EE11  F01C         	lfsr	1,_sys+10
  3410  008592  EE01  F056         	lfsr	0,_sys+68
  3411  008596  52EE               	movf	postinc0,f,c
  3412  008598  52E6               	movf	postinc1,f,c
  3413  00859A  50E5               	movf	postdec1,w,c
  3414  00859C  5CED               	subwf	postdec0,w,c
  3415  00859E  E102               	bnz	u3265
  3416  0085A0  50E7               	movf	indf1,w,c
  3417  0085A2  5CEF               	subwf	indf0,w,c
  3418  0085A4                     u3265:
  3419  0085A4  A0D8               	btfss	status,0,c
  3420  0085A6  D0B5               	goto	L64
  3421                           ;adc.c: 573: else if((sys.icv <= sys.c1)&&(sys.i
      +                          cv > sys.c2))ic_err = 2;
  3422  0085A8  EE11  F01C         	lfsr	1,_sys+10
  3423  0085AC  EE01  F056         	lfsr	0,_sys+68
  3424  0085B0  52EE               	movf	postinc0,f,c
  3425  0085B2  52E6               	movf	postinc1,f,c
  3426  0085B4  50E5               	movf	postdec1,w,c
  3427  0085B6  5CED               	subwf	postdec0,w,c
  3428  0085B8  E102               	bnz	u3275
  3429  0085BA  50E7               	movf	indf1,w,c
  3430  0085BC  5CEF               	subwf	indf0,w,c
  3431  0085BE                     u3275:
  3432  0085BE  A0D8               	btfss	status,0,c
  3433  0085C0  D00D               	goto	l338
  3434  0085C2  EE11  F01C         	lfsr	1,_sys+10
  3435  0085C6  EE01  F058         	lfsr	0,_sys+70
  3436  0085CA  52EE               	movf	postinc0,f,c
  3437  0085CC  52E6               	movf	postinc1,f,c
  3438  0085CE  50E5               	movf	postdec1,w,c
  3439  0085D0  5CED               	subwf	postdec0,w,c
  3440  0085D2  E102               	bnz	u3285
  3441  0085D4  50E7               	movf	indf1,w,c
  3442  0085D6  5CEF               	subwf	indf0,w,c
  3443  0085D8                     u3285:
  3444  0085D8  A0D8               	btfss	status,0,c
  3445  0085DA  D11C               	goto	L67
  3446                           ;adc.c: 574: else if((sys.icv <= sys.c2)&&(sys.i
      +                          cv > sys.c3))ic_err = 1;
  3447  0085DC                     l338:
  3448  0085DC  EE11  F01C         	lfsr	1,_sys+10
  3449  0085E0  EE01  F058         	lfsr	0,_sys+70
  3450  0085E4  52EE               	movf	postinc0,f,c
  3451  0085E6  52E6               	movf	postinc1,f,c
  3452  0085E8  50E5               	movf	postdec1,w,c
  3453  0085EA  5CED               	subwf	postdec0,w,c
  3454  0085EC  E102               	bnz	u3305
  3455  0085EE  50E7               	movf	indf1,w,c
  3456  0085F0  5CEF               	subwf	indf0,w,c
  3457  0085F2                     u3305:
  3458  0085F2  A0D8               	btfss	status,0,c
  3459  0085F4  D00D               	goto	l340
  3460  0085F6  EE11  F01C         	lfsr	1,_sys+10
  3461  0085FA  EE01  F05A         	lfsr	0,_sys+72
  3462  0085FE  52EE               	movf	postinc0,f,c
  3463  008600  52E6               	movf	postinc1,f,c
  3464  008602  50E5               	movf	postdec1,w,c
  3465  008604  5CED               	subwf	postdec0,w,c
  3466  008606  E102               	bnz	u3315
  3467  008608  50E7               	movf	indf1,w,c
  3468  00860A  5CEF               	subwf	indf0,w,c
  3469  00860C                     u3315:
  3470  00860C  A0D8               	btfss	status,0,c
  3471  00860E  D11E               	goto	L68
  3472                           ;adc.c: 575: else if((sys.icv <= sys.c3)&&(sys.i
      +                          cv > 0))ic_err = 0;
  3473  008610                     l340:
  3474  008610  EE11  F01C         	lfsr	1,_sys+10
  3475  008614  EE01  F05A         	lfsr	0,_sys+72
  3476  008618  52EE               	movf	postinc0,f,c
  3477  00861A  52E6               	movf	postinc1,f,c
  3478  00861C  50E5               	movf	postdec1,w,c
  3479  00861E  5CED               	subwf	postdec0,w,c
  3480  008620  E102               	bnz	u3335
  3481  008622  50E7               	movf	indf1,w,c
  3482  008624  5CEF               	subwf	indf0,w,c
  3483  008626                     u3335:
  3484  008626  D05B               	goto	u3455
  3485                           ;adc.c: 576: else if(sys.icv == 0)ic_err = 4;
  3486                           ;adc.c: 577: }
  3487                           ;adc.c: 578: else if(ic_err == 3)
  3488  008628                     l335:
  3489  008628  CE86  FFE8         	movff	_ic_err,wreg
  3490  00862C  0A03               	xorlw	3
  3491  00862E  A4D8               	btfss	status,2,c
  3492  008630  D05E               	goto	l346
  3493                           ;adc.c: 579: {
  3494  008632  EE11  F01C         	lfsr	1,_sys+10
  3495  008636  EE01  F056         	lfsr	0,_sys+68
  3496  00863A  52EE               	movf	postinc0,f,c
  3497  00863C  52E6               	movf	postinc1,f,c
  3498  00863E  50E5               	movf	postdec1,w,c
  3499  008640  5CED               	subwf	postdec0,w,c
  3500  008642  E102               	bnz	u3385
  3501  008644  50E7               	movf	indf1,w,c
  3502  008646  5CEF               	subwf	indf0,w,c
  3503  008648                     u3385:
  3504  008648  A0D8               	btfss	status,0,c
  3505  00864A  D063               	goto	L64
  3506                           ;adc.c: 581: else if((sys.icv <= sys.c1-2)&&(sys
      +                          .icv > sys.c2))ic_err = 2;
  3507  00864C  EE01  F01C         	lfsr	0,_sys+10
  3508  008650  CFEE F000          	movff	postinc0,btemp
  3509  008654  CFED F001          	movff	postdec0,btemp+1
  3510  008658  EE01  F056         	lfsr	0,_sys+68
  3511  00865C  CFEE F002          	movff	postinc0,btemp+2
  3512  008660  CFED F003          	movff	postdec0,btemp+3
  3513  008664  0EFE               	movlw	254
  3514  008666  2602               	addwf	btemp+2,f
  3515  008668  0EFF               	movlw	255
  3516  00866A  2203               	addwfc	btemp+3,f
  3517  00866C  5001               	movf	btemp+1,w
  3518  00866E  5C03               	subwf	btemp+3,w
  3519  008670  E102               	bnz	u3395
  3520  008672  5000               	movf	btemp,w
  3521  008674  5C02               	subwf	btemp+2,w
  3522  008676                     u3395:
  3523  008676  A0D8               	btfss	status,0,c
  3524  008678  D00D               	goto	l349
  3525  00867A  EE11  F01C         	lfsr	1,_sys+10
  3526  00867E  EE01  F058         	lfsr	0,_sys+70
  3527  008682  52EE               	movf	postinc0,f,c
  3528  008684  52E6               	movf	postinc1,f,c
  3529  008686  50E5               	movf	postdec1,w,c
  3530  008688  5CED               	subwf	postdec0,w,c
  3531  00868A  E102               	bnz	u3405
  3532  00868C  50E7               	movf	indf1,w,c
  3533  00868E  5CEF               	subwf	indf0,w,c
  3534  008690                     u3405:
  3535  008690  A0D8               	btfss	status,0,c
  3536  008692  D0C0               	goto	L67
  3537                           ;adc.c: 582: else if((sys.icv <= sys.c2)&&(sys.i
      +                          cv > sys.c3))ic_err = 1;
  3538  008694                     l349:
  3539  008694  EE11  F01C         	lfsr	1,_sys+10
  3540  008698  EE01  F058         	lfsr	0,_sys+70
  3541  00869C  52EE               	movf	postinc0,f,c
  3542  00869E  52E6               	movf	postinc1,f,c
  3543  0086A0  50E5               	movf	postdec1,w,c
  3544  0086A2  5CED               	subwf	postdec0,w,c
  3545  0086A4  E102               	bnz	u3425
  3546  0086A6  50E7               	movf	indf1,w,c
  3547  0086A8  5CEF               	subwf	indf0,w,c
  3548  0086AA                     u3425:
  3549  0086AA  A0D8               	btfss	status,0,c
  3550  0086AC  D00D               	goto	l351
  3551  0086AE  EE11  F01C         	lfsr	1,_sys+10
  3552  0086B2  EE01  F05A         	lfsr	0,_sys+72
  3553  0086B6  52EE               	movf	postinc0,f,c
  3554  0086B8  52E6               	movf	postinc1,f,c
  3555  0086BA  50E5               	movf	postdec1,w,c
  3556  0086BC  5CED               	subwf	postdec0,w,c
  3557  0086BE  E102               	bnz	u3435
  3558  0086C0  50E7               	movf	indf1,w,c
  3559  0086C2  5CEF               	subwf	indf0,w,c
  3560  0086C4                     u3435:
  3561  0086C4  A0D8               	btfss	status,0,c
  3562  0086C6  D0C2               	goto	L68
  3563                           ;adc.c: 583: else if((sys.icv <= sys.c3)&&(sys.i
      +                          cv>0))ic_err = 0;
  3564  0086C8                     l351:
  3565  0086C8  EE11  F01C         	lfsr	1,_sys+10
  3566  0086CC  EE01  F05A         	lfsr	0,_sys+72
  3567  0086D0  52EE               	movf	postinc0,f,c
  3568  0086D2  52E6               	movf	postinc1,f,c
  3569  0086D4  50E5               	movf	postdec1,w,c
  3570  0086D6  5CED               	subwf	postdec0,w,c
  3571  0086D8  E102               	bnz	u3455
  3572  0086DA  50E7               	movf	indf1,w,c
  3573  0086DC  5CEF               	subwf	indf0,w,c
  3574  0086DE                     u3455:
  3575  0086DE  A0D8               	btfss	status,0,c
  3576  0086E0  D0D3               	goto	l375
  3577  0086E2  0101               	movlb	(_sys+10) shr (0+8)
  3578  0086E4  511C               	movf	(_sys+10)& (0+255),w,b
  3579  0086E6  111D               	iorwf	(_sys+11)& (0+255),w,b
  3580  0086E8  A4D8               	btfss	status,2,c
  3581  0086EA  D065               	goto	u3590
  3582                           ;adc.c: 584: else if(sys.icv == 0)ic_err = 4;
  3583  0086EC  D0CD               	goto	l375
  3584                           ;adc.c: 585: }
  3585                           ;adc.c: 586: else if(ic_err == 2)
  3586  0086EE                     l346:
  3587  0086EE  CE86  FFE8         	movff	_ic_err,wreg
  3588  0086F2  0A02               	xorlw	2
  3589  0086F4  A4D8               	btfss	status,2,c
  3590  0086F6  D062               	goto	l357
  3591                           ;adc.c: 587: {
  3592  0086F8  EE11  F01C         	lfsr	1,_sys+10
  3593  0086FC  EE01  F056         	lfsr	0,_sys+68
  3594  008700  52EE               	movf	postinc0,f,c
  3595  008702  52E6               	movf	postinc1,f,c
  3596  008704  50E5               	movf	postdec1,w,c
  3597  008706  5CED               	subwf	postdec0,w,c
  3598  008708  E102               	bnz	u3505
  3599  00870A  50E7               	movf	indf1,w,c
  3600  00870C  5CEF               	subwf	indf0,w,c
  3601  00870E                     u3505:
  3602  00870E  B0D8               	btfsc	status,0,c
  3603  008710  D002               	goto	l358
  3604  008712                     L64:
  3605  008712  0E03               	movlw	3
  3606  008714  D0BF               	goto	L20
  3607                           ;adc.c: 589: else if((sys.icv <= sys.c1)&&(sys.i
      +                          cv > sys.c2))ic_err = 2;
  3608  008716                     l358:
  3609  008716  EE11  F01C         	lfsr	1,_sys+10
  3610  00871A  EE01  F056         	lfsr	0,_sys+68
  3611  00871E  52EE               	movf	postinc0,f,c
  3612  008720  52E6               	movf	postinc1,f,c
  3613  008722  50E5               	movf	postdec1,w,c
  3614  008724  5CED               	subwf	postdec0,w,c
  3615  008726  E102               	bnz	u3515
  3616  008728  50E7               	movf	indf1,w,c
  3617  00872A  5CEF               	subwf	indf0,w,c
  3618  00872C                     u3515:
  3619  00872C  A0D8               	btfss	status,0,c
  3620  00872E  D00D               	goto	l360
  3621  008730  EE11  F01C         	lfsr	1,_sys+10
  3622  008734  EE01  F058         	lfsr	0,_sys+70
  3623  008738  52EE               	movf	postinc0,f,c
  3624  00873A  52E6               	movf	postinc1,f,c
  3625  00873C  50E5               	movf	postdec1,w,c
  3626  00873E  5CED               	subwf	postdec0,w,c
  3627  008740  E102               	bnz	u3525
  3628  008742  50E7               	movf	indf1,w,c
  3629  008744  5CEF               	subwf	indf0,w,c
  3630  008746                     u3525:
  3631  008746  A0D8               	btfss	status,0,c
  3632  008748  D065               	goto	L67
  3633                           ;adc.c: 590: else if((sys.icv <= sys.c2-2)&&(sys
      +                          .icv > sys.c3))ic_err = 1;
  3634  00874A                     l360:
  3635  00874A  EE01  F01C         	lfsr	0,_sys+10
  3636  00874E  CFEE F000          	movff	postinc0,btemp
  3637  008752  CFED F001          	movff	postdec0,btemp+1
  3638  008756  EE01  F058         	lfsr	0,_sys+70
  3639  00875A  CFEE F002          	movff	postinc0,btemp+2
  3640  00875E  CFED F003          	movff	postdec0,btemp+3
  3641  008762  0EFE               	movlw	254
  3642  008764  2602               	addwf	btemp+2,f
  3643  008766  0EFF               	movlw	255
  3644  008768  2203               	addwfc	btemp+3,f
  3645  00876A  5001               	movf	btemp+1,w
  3646  00876C  5C03               	subwf	btemp+3,w
  3647  00876E  E102               	bnz	u3545
  3648  008770  5000               	movf	btemp,w
  3649  008772  5C02               	subwf	btemp+2,w
  3650  008774                     u3545:
  3651  008774  A0D8               	btfss	status,0,c
  3652  008776  D00D               	goto	l362
  3653  008778  EE11  F01C         	lfsr	1,_sys+10
  3654  00877C  EE01  F05A         	lfsr	0,_sys+72
  3655  008780  52EE               	movf	postinc0,f,c
  3656  008782  52E6               	movf	postinc1,f,c
  3657  008784  50E5               	movf	postdec1,w,c
  3658  008786  5CED               	subwf	postdec0,w,c
  3659  008788  E102               	bnz	u3555
  3660  00878A  50E7               	movf	indf1,w,c
  3661  00878C  5CEF               	subwf	indf0,w,c
  3662  00878E                     u3555:
  3663  00878E  A0D8               	btfss	status,0,c
  3664  008790  D05D               	goto	L68
  3665                           ;adc.c: 591: else if((sys.icv <= sys.c3)&&(sys.i
      +                          cv>0))ic_err = 0;
  3666  008792                     l362:
  3667  008792  EE11  F01C         	lfsr	1,_sys+10
  3668  008796  EE01  F05A         	lfsr	0,_sys+72
  3669  00879A  52EE               	movf	postinc0,f,c
  3670  00879C  52E6               	movf	postinc1,f,c
  3671  00879E  50E5               	movf	postdec1,w,c
  3672  0087A0  5CED               	subwf	postdec0,w,c
  3673  0087A2  E102               	bnz	u3575
  3674  0087A4  50E7               	movf	indf1,w,c
  3675  0087A6  5CEF               	subwf	indf0,w,c
  3676  0087A8                     u3575:
  3677  0087A8  A0D8               	btfss	status,0,c
  3678  0087AA  D06E               	goto	l375
  3679  0087AC  0101               	movlb	(_sys+10) shr (0+8)
  3680  0087AE  511C               	movf	(_sys+10)& (0+255),w,b
  3681  0087B0  111D               	iorwf	(_sys+11)& (0+255),w,b
  3682  0087B2  B4D8               	btfsc	status,2,c
  3683  0087B4  D069               	goto	l375
  3684  0087B6                     u3590:
  3685  0087B6  010E               	movlb	_ic_err shr (0+8)
  3686  0087B8  6B86               	clrf	_ic_err& (0+255),b
  3687                           ;adc.c: 592: else if(sys.icv == 0)ic_err = 4;
  3688  0087BA  D06E               	goto	l345
  3689                           ;adc.c: 593: }
  3690                           ;adc.c: 594: else if(ic_err == 1)
  3691  0087BC                     l357:
  3692  0087BC  CE86  F000         	movff	_ic_err,btemp
  3693  0087C0  0400               	decf	btemp,w
  3694  0087C2  A4D8               	btfss	status,2,c
  3695  0087C4  D069               	goto	l345
  3696                           ;adc.c: 595: {
  3697  0087C6  EE11  F01C         	lfsr	1,_sys+10
  3698  0087CA  EE01  F056         	lfsr	0,_sys+68
  3699  0087CE  52EE               	movf	postinc0,f,c
  3700  0087D0  52E6               	movf	postinc1,f,c
  3701  0087D2  50E5               	movf	postdec1,w,c
  3702  0087D4  5CED               	subwf	postdec0,w,c
  3703  0087D6  E102               	bnz	u3625
  3704  0087D8  50E7               	movf	indf1,w,c
  3705  0087DA  5CEF               	subwf	indf0,w,c
  3706  0087DC                     u3625:
  3707  0087DC  A0D8               	btfss	status,0,c
  3708  0087DE  D799               	goto	L64
  3709                           ;adc.c: 597: else if((sys.icv <= sys.c1)&&(sys.i
      +                          cv > sys.c2))ic_err = 2;
  3710  0087E0  EE11  F01C         	lfsr	1,_sys+10
  3711  0087E4  EE01  F056         	lfsr	0,_sys+68
  3712  0087E8  52EE               	movf	postinc0,f,c
  3713  0087EA  52E6               	movf	postinc1,f,c
  3714  0087EC  50E5               	movf	postdec1,w,c
  3715  0087EE  5CED               	subwf	postdec0,w,c
  3716  0087F0  E102               	bnz	u3635
  3717  0087F2  50E7               	movf	indf1,w,c
  3718  0087F4  5CEF               	subwf	indf0,w,c
  3719  0087F6                     u3635:
  3720  0087F6  A0D8               	btfss	status,0,c
  3721  0087F8  D00F               	goto	l371
  3722  0087FA  EE11  F01C         	lfsr	1,_sys+10
  3723  0087FE  EE01  F058         	lfsr	0,_sys+70
  3724  008802  52EE               	movf	postinc0,f,c
  3725  008804  52E6               	movf	postinc1,f,c
  3726  008806  50E5               	movf	postdec1,w,c
  3727  008808  5CED               	subwf	postdec0,w,c
  3728  00880A  E102               	bnz	u3645
  3729  00880C  50E7               	movf	indf1,w,c
  3730  00880E  5CEF               	subwf	indf0,w,c
  3731  008810                     u3645:
  3732  008810  B0D8               	btfsc	status,0,c
  3733  008812  D002               	goto	l371
  3734  008814                     L67:
  3735  008814  0E02               	movlw	2
  3736  008816  D03E               	goto	L20
  3737                           ;adc.c: 598: else if((sys.icv <= sys.c2)&&(sys.i
      +                          cv > sys.c3))ic_err = 1;
  3738  008818                     l371:
  3739  008818  EE11  F01C         	lfsr	1,_sys+10
  3740  00881C  EE01  F058         	lfsr	0,_sys+70
  3741  008820  52EE               	movf	postinc0,f,c
  3742  008822  52E6               	movf	postinc1,f,c
  3743  008824  50E5               	movf	postdec1,w,c
  3744  008826  5CED               	subwf	postdec0,w,c
  3745  008828  E102               	bnz	u3665
  3746  00882A  50E7               	movf	indf1,w,c
  3747  00882C  5CEF               	subwf	indf0,w,c
  3748  00882E                     u3665:
  3749  00882E  A0D8               	btfss	status,0,c
  3750  008830  D00F               	goto	l373
  3751  008832  EE11  F01C         	lfsr	1,_sys+10
  3752  008836  EE01  F05A         	lfsr	0,_sys+72
  3753  00883A  52EE               	movf	postinc0,f,c
  3754  00883C  52E6               	movf	postinc1,f,c
  3755  00883E  50E5               	movf	postdec1,w,c
  3756  008840  5CED               	subwf	postdec0,w,c
  3757  008842  E102               	bnz	u3675
  3758  008844  50E7               	movf	indf1,w,c
  3759  008846  5CEF               	subwf	indf0,w,c
  3760  008848                     u3675:
  3761  008848  B0D8               	btfsc	status,0,c
  3762  00884A  D002               	goto	l373
  3763  00884C                     L68:
  3764  00884C  0E01               	movlw	1
  3765  00884E  D022               	goto	L20
  3766                           ;adc.c: 599: else if((sys.icv <= sys.c3-2)&&(sys
      +                          .icv>0))ic_err = 0;
  3767  008850                     l373:
  3768  008850  EE01  F01C         	lfsr	0,_sys+10
  3769  008854  CFEE F000          	movff	postinc0,btemp
  3770  008858  CFED F001          	movff	postdec0,btemp+1
  3771  00885C  EE01  F05A         	lfsr	0,_sys+72
  3772  008860  CFEE F002          	movff	postinc0,btemp+2
  3773  008864  CFED F003          	movff	postdec0,btemp+3
  3774  008868  0EFE               	movlw	254
  3775  00886A  2602               	addwf	btemp+2,f
  3776  00886C  0EFF               	movlw	255
  3777  00886E  2203               	addwfc	btemp+3,f
  3778  008870  5001               	movf	btemp+1,w
  3779  008872  5C03               	subwf	btemp+3,w
  3780  008874  E102               	bnz	u3695
  3781  008876  5000               	movf	btemp,w
  3782  008878  5C02               	subwf	btemp+2,w
  3783  00887A                     u3695:
  3784  00887A  A0D8               	btfss	status,0,c
  3785  00887C  D005               	goto	l375
  3786  00887E  0101               	movlb	(_sys+10) shr (0+8)
  3787  008880  511C               	movf	(_sys+10)& (0+255),w,b
  3788  008882  111D               	iorwf	(_sys+11)& (0+255),w,b
  3789  008884  A4D8               	btfss	status,2,c
  3790  008886  D797               	goto	u3590
  3791                           ;adc.c: 600: else if(sys.icv == 0)ic_err = 4;
  3792  008888                     l375:
  3793  008888  0101               	movlb	(_sys+10) shr (0+8)
  3794  00888A  511C               	movf	(_sys+10)& (0+255),w,b
  3795  00888C  111D               	iorwf	(_sys+11)& (0+255),w,b
  3796  00888E  A4D8               	btfss	status,2,c
  3797  008890  D003               	goto	l345
  3798  008892  0E04               	movlw	4
  3799  008894                     L20:
  3800  008894  CFE8 FE86          	movff	wreg,_ic_err
  3801                           ;adc.c: 602: }
  3802                           ;adc.c: 604: sys.err_judge_flag = 1;
  3803  008898                     l345:
  3804  008898  0E01               	movlw	1
  3805  00889A  CFE8 F161          	movff	wreg,_sys+79
  3806                           ;adc.c: 606: adm.channle = 0;
  3807  00889E  0100               	movlb	_adm shr (0+8)
  3808  0088A0  6B16               	clrf	_adm& (0+255),b
  3809                           ;adc.c: 607: }
  3810  0088A2  D018               	goto	l110
  3811  0088A4                     l111:
  3812  0088A4  C016  FFE8         	movff	_adm,wreg
  3813  0088A8  0A00               	xorlw	0
  3814  0088AA  E102 EFFE  F039    	bz	l112
  3815  0088B0  0A01               	xorlw	1
  3816  0088B2  E102 EFFF  F03B    	bz	l156
  3817  0088B8  0A03               	xorlw	3
  3818  0088BA  E102 EFB2  F03D    	bz	l200
  3819  0088C0  0A01               	xorlw	1
  3820  0088C2  E102 EF64  F03F    	bz	l244
  3821  0088C8  0A07               	xorlw	7
  3822  0088CA  E101 D4A7          	bz	l290
  3823  0088CE  0A01               	xorlw	1
  3824  0088D0  E101 D645          	bz	l334
  3825  0088D4                     l110:
  3826                           ;adc.c: 609: adm.sam_count = 0;
  3827  0088D4  0100               	movlb	(_adm+14) shr (0+8)
  3828  0088D6  6B24               	clrf	(_adm+14)& (0+255),b
  3829                           ;adc.c: 610: adm.sum_val = 0;
  3830  0088D8  6B1E               	clrf	(_adm+8)& (0+255),b
  3831  0088DA  6B1F               	clrf	(_adm+9)& (0+255),b
  3832                           ;adc.c: 611: }
  3833  0088DC  0012               	return	
  3834                           
  3835                           	psect	bigbss
  3836  000E84                     _ia_err:
  3837  000E84                     	ds	1
  3838  000E84                     _ib_err:
  3839  000E84                     	ds	1
  3840  000E84                     _ic_err:
  3841  000E84                     	ds	1
  3842  000E84                     _ua_err:
  3843  000E84                     	ds	1
  3844  000E84                     _ub_err:
  3845  000E84                     	ds	1
  3846  000E84                     _uc_err:
  3847  000E84                     	ds	1
  3848  000000                     
  3849  000000                     
  3850  000000                     
  3851  000000                     
  3852  000000                     
  3853  000000                     
  3854  000000                     
  3855  000000                     
  3856  000000                     
  3857  000000                     
  3858                           
  3859                           	psect	bss
  3860  000016                     _adm:
  3861  000016                     	ds	19
  3862                           
  3863                           	psect	temp
  3864  000000                     btemp:
  3865  000000                     	ds	8
  3866                           prodh	equ	0xFF4
  3867                           prodl	equ	0xFF3
  3868                           indf0	equ	0xFEF
  3869                           postinc0	equ	0xFEE
  3870                           postdec0	equ	0xFED
  3871                           fsr0h	equ	0xFEA
  3872                           fsr0l	equ	0xFE9
  3873                           wreg	equ	0xFE8
  3874                           indf1	equ	0xFE7
  3875                           postinc1	equ	0xFE6
  3876                           postdec1	equ	0xFE5
  3877                           status	equ	0xFD8


HI-TECH Software PICC-18 Macro Assembler V8.35PL3
Symbol Table                                           Thu Jan  2 10:12:16 2014

                  l20 6D3E                    l21 6D46  
                  l30 6DF6                    l22 6D4E  
                  l31 6DA2                    l23 6D56  
                  l40 6DFE                    l33 6DBA  
                  l17 6D5E                    l50 6E68  
                  l42 6E20                    l18 6D2E  
                  l43 6E78                    l35 6DCC  
                  l27 6EA6                    l19 6D36  
                  l44 6E32                    l28 6D7E  
                  l61 7010                    l53 6E8E  
                  l37 6DE0                    l29 6D8E  
                  l62 6F96                    l54 6E94  
                  l46 6E44                    l55 6E9A  
                  l72 70B4                    l64 6FBC  
                  l48 6E56                    l73 702E  
                  l57 6EF8                    l90 7148  
                  l66 6FE2                    l83 7158  
                  l75 7060                    l84 70D2  
                  l68 7000                    l77 7086  
                  l86 70F8                    l95 7174  
                  l79 70A4                    l88 712A  
                  l97 719A                    l99 71C0  
                 l101 71EA                   l110 88D4  
                 l111 88A4                   l200 7B64  
                 l112 73FC                   l201 7C54  
                 l113 751C                   l105 72E2  
                 l106 7366                   l211 7EC4  
                 l123 77F8                   l107 7332  
                 l212 7D1A                   l204 7C08  
                 l124 7606                   l301 8556  
                 l302 83AC                   l206 7C3C  
                 l223 7DE8                   l215 7CC0  
                 l151 77B4                   l135 76F8  
                 l224 7D42                   l160 78A2  
                 l136 7636                   l313 847A  
                 l305 8352                   l241 7EB4  
                 l217 7CF4                   l153 77E8  
                 l314 83D4                   l250 7F7A  
                 l226 7D76                   l162 78D6  
                 l331 8546                   l307 8386  
                 l171 795A                   l340 8610  
                 l316 8408                   l244 7EC8  
                 l228 7DBE                   l180 79DC  
                 l156 77FE                   l261 8032  
                 l245 7F92                   l237 7E44  
                 l173 798E                   l157 78EE  
                 l149 776C                   l334 855E  
                 l318 8450                   l270 80B4  
                 l182 7A10                   l351 86C8  
                 l335 8628                   l327 84D6  
                 l255 8202                   l239 7E7C  
                 l167 7B5E                   l360 874A  
                 l272 80FC                   l256 8058  
                 l248 7F46                   l184 7A58  
                 l168 79B4                   l345 8898  
                 l329 850E                   l281 8182  
                 l193 7ADE                   l362 8792  
                 l346 86EE                   l338 85DC  
                 l290 821C                   l371 8818  
                 l291 82E6                   l283 81BA  
                 l267 8126                   l259 7FFE  
                 l195 7B16                   l179 7A82  
                 l268 8080                   l373 8850  
                 l357 87BC                   l349 8694  
                 l285 81F2                   l197 7B4E  
                 l358 8716                   l294 829A  
                 l375 8888                   l296 82CE  
                 l288 8218                   u205 6FA2  
                 u215 6FB0                   u315 7024  
                 u235 6FC8                   u325 7046  
                 u245 6FD6                   u335 7054  
                 u505 7136                   u265 6FEE  
                 u435 70C8                   u355 706C  
                 u195 6F8C                   u605 71B4  
                 u445 70DE                   u365 707A  
                 u455 70EC                   u705 73C0  
                 u625 71D8                   u385 7092  
                 u715 73EA                   u555 716A  
                 u475 7110                   u740 7452  
                 u805 74F8                   u565 7180  
                 u485 711E                   u575 718E  
                 u825 751A                   u915 75B2  
                 u755 7470                   u675 7326  
                 u595 71A6                   u925 75D4  
                 u765 7492                   u685 735A  
                 u775 74B4                   u945 75F6  
                 u875 7544                   u795 74D6  
                 u885 756E                   u895 7590  
                 u995 762E              _adc_init 6CE8  
                 _adm 0016                   _sys 0112  
                 wreg 000FE8                  f7423 003D  
                u1005 7654                  u1015 7676  
                u1115 7720                  u1035 76A0  
                u2005 7D58                  u1125 7742  
                u1045 76C2                  u2015 7D72  
                u1135 7764                  u1240 7854  
                u1080 76F2                  u1305 78D2  
                u1065 76E4                  u2115 7E08  
                u2035 7DA0                  u1155 778A  
                u3005 83CC                  u2125 7E22  
                u2045 7DBA                  u1325 78EC  
                u1165 77AC                  u3015 83EA  
                u2135 7E3C                  u1415 7970  
                u1255 786A                  u2240 7EF8  
                u2080 7DE2                  u3025 8404  
                u2305 7F76                  u2065 7DD4  
                u1505 79F2                  u1425 798A  
                u1265 7884                  u1185 77DA  
                u2155 7E5A                  u1515 7A0C  
                u1275 789E                  u3125 849A  
                u3045 8432                  u2325 7F90  
                u2165 7E74                  u1445 79A4  
                u3135 84B4                  u3055 844C  
                u2415 8014                  u2255 7F0E  
                u1615 7AA2                  u1535 7A3A  
                u1375 790E                  u1295 78B8  
                u3305 85F2                  u3145 84CE  
                u2505 8096                  u2425 802E  
                u2265 7F28                  u2185 7EA6  
                u1625 7ABC                  u1545 7A54  
                u1385 793C                  u3250 858E  
                u3090 8474                  u3315 860C  
                u3075 8466                  u2515 80B0  
                u2275 7F42                  u1635 7AD6  
                u1395 7956                  u1740 7BBA  
                u1580 7A7C                  u3405 8690  
                u3165 84EC                  u2445 8048  
                u1805 7C38                  u1565 7A6E  
                u3335 8626                  u3175 8506  
                u2615 8146                  u2535 80DE  
                u2375 7FB2                  u2295 7F5C  
                u1655 7AF4                  u1495 79D4  
                u3505 870E                  u3425 86AA  
                u3265 85A4                  u2625 8160  
                u2545 80F8                  u2385 7FE0  
                u1825 7C52                  u1665 7B0E  
                u3515 872C                  u3435 86C4  
                u3275 85BE                  u3195 8538  
                u2635 817A                  u2395 7FFA  
                u1915 7CD6                  u1755 7BD0  
                u2580 8120                  u3525 8746  
                u3285 85D8                  u2805 82B0  
                u2565 8112                  u1925 7CF0  
                u1765 7BEA                  u1685 7B40  
                u2750 824C                  u3455 86DE  
                u2815 82CA                  u2655 8198  
                u2495 8078                  u1775 7C04  
                u3625 87DC                  u3545 8774  
                u3385 8648                  u2905 834E  
                u2665 81B2                  u1945 7D0A  
                u3635 87F6                  u3555 878E  
                u3395 8676                  u2835 82E4  
                u1875 7C74                  u1795 7C1E  
                u3645 8810                  u2925 8368  
                u2765 8262                  u2685 81E4  
                u1885 7CA2                  u3590 87B6  
                u3575 87A8                  u2935 8382  
                u2775 827C                  u1895 7CBC  
                u3665 882E                  u2785 8296  
                u3675 8848                  u2955 839C  
                u1995 7D3A                  u2885 8306  
                u3695 887A                  u2895 8334  
                aldiv A2F6                  alslr A3FA  
                fsr0h 000FEA                  indf0 000FEF  
                fsr0l 000FE9                  indf1 000FE7  
                _root 6EC0                  btemp 0000  
                lldiv 0E3A                  llmul A15E  
                prodl 000FF3              clear_big 0018  
            clear_bss 0024               ?_pd_val 0029  
               ?_root 0041       _cal_channle_val 71FA  
          used_btemp0 0001            used_btemp1 0001  
          used_btemp2 0001            used_btemp3 0001  
          used_btemp4 0001            used_btemp5 0001  
          used_btemp6 0001            used_btemp7 0001  
        _capture_init 6D12                 status 000FD8  
             __Lparam 0029      _clear_one_ad_val 6D2C  
             __ramtop 0F00    _ad_sequence_sample 6D7C  
              ?a_root 0045     ?a_cal_channle_val 0029  
             postdec0 000FED               postdec1 000FE5  
              _ia_err 0E84               postinc0 000FEE  
             postinc1 000FE6                _ib_err 0E85  
              _ic_err 0E86                _pd_val 6F72  
              _ua_err 0E87                _ub_err 0E88  
              _uc_err 0E89                llmul_f A422  
      _ad_buffer_init 6CD2  
